ccopy_reg
_reconstructor
p0
(cpandas.core.frame
DataFrame
p1
c__builtin__
object
p2
Ntp3
Rp4
(dp5
S'_metadata'
p6
(lp7
sS'_typ'
p8
S'dataframe'
p9
sS'_data'
p10
g0
(cpandas.core.internals
BlockManager
p11
g2
Ntp12
Rp13
((lp14
cpandas.core.indexes.base
_new_Index
p15
(cpandas.core.indexes.base
Index
p16
(dp17
S'data'
p18
cnumpy.core.multiarray
_reconstruct
p19
(cnumpy
ndarray
p20
(I0
tp21
S'b'
p22
tp23
Rp24
(I1
(I56
tp25
cnumpy
dtype
p26
(S'O8'
p27
I0
I1
tp28
Rp29
(I3
S'|'
p30
NNNI-1
I-1
I63
tp31
bI00
(lp32
S'year'
p33
aS'type'
p34
aS'procOriginal'
p35
aS'proc'
p36
aS'proc_s0'
p37
aS'cat'
p38
aS'inputWSFile'
p39
aS'nominalDataName'
p40
aS'modelWSFile'
p41
aS'model'
p42
aS'rate'
p43
aS'nominal_yield'
p44
aS'sumw2'
p45
aS'nominal_yield_COWCorr'
p46
aS'weight_electron_veto_sf_Diphoton_Photon_up_yield'
p47
aS'weight_electron_veto_sf_Diphoton_Photon_down_yield'
p48
aS'weight_electron_id_sf_SelectedElectron_up_yield'
p49
aS'weight_electron_id_sf_SelectedElectron_down_yield'
p50
aS'weight_muon_id_sfSTAT_SelectedMuon_up_yield'
p51
aS'weight_muon_id_sfSTAT_SelectedMuon_down_yield'
p52
aS'weight_muon_id_sfSYS_SelectedMuon_up_yield'
p53
aS'weight_muon_id_sfSYS_SelectedMuon_down_yield'
p54
aS'weight_muon_iso_sfSTAT_SelectedMuon_up_yield'
p55
aS'weight_muon_iso_sfSTAT_SelectedMuon_down_yield'
p56
aS'weight_muon_iso_sfSYS_SelectedMuon_up_yield'
p57
aS'weight_muon_iso_sfSYS_SelectedMuon_down_yield'
p58
aS'weight_trigger_sf_up_yield'
p59
aS'weight_trigger_sf_down_yield'
p60
aS'JER_up_yield'
p61
aS'JER_down_yield'
p62
aS'JES_up_yield'
p63
aS'JES_down_yield'
p64
aS'MET_JER_up_yield'
p65
aS'MET_JER_down_yield'
p66
aS'MET_JES_up_yield'
p67
aS'MET_JES_down_yield'
p68
aS'MET_Unclustered_up_yield'
p69
aS'MET_Unclustered_down_yield'
p70
aS'Muon_pt_up_yield'
p71
aS'Muon_pt_down_yield'
p72
aS'Tau_pt_up_yield'
p73
aS'Tau_pt_down_yield'
p74
aS'weight_btag_deepjet_sf_SelectedJet_jes_up_yield'
p75
aS'weight_btag_deepjet_sf_SelectedJet_jes_down_yield'
p76
aS'weight_btag_deepjet_sf_SelectedJet_lfstats1_up_yield'
p77
aS'weight_btag_deepjet_sf_SelectedJet_lfstats1_down_yield'
p78
aS'weight_btag_deepjet_sf_SelectedJet_lfstats2_up_yield'
p79
aS'weight_btag_deepjet_sf_SelectedJet_lfstats2_down_yield'
p80
aS'weight_btag_deepjet_sf_SelectedJet_hfstats1_up_yield'
p81
aS'weight_btag_deepjet_sf_SelectedJet_hfstats1_down_yield'
p82
aS'weight_btag_deepjet_sf_SelectedJet_hfstats2_up_yield'
p83
aS'weight_btag_deepjet_sf_SelectedJet_hfstats2_down_yield'
p84
aS'weight_btag_deepjet_sf_SelectedJet_cferr1_up_yield'
p85
aS'weight_btag_deepjet_sf_SelectedJet_cferr1_down_yield'
p86
aS'weight_btag_deepjet_sf_SelectedJet_cferr2_up_yield'
p87
aS'weight_btag_deepjet_sf_SelectedJet_cferr2_down_yield'
p88
atp89
bsS'name'
p90
Nstp91
Rp92
ag15
(cpandas.core.indexes.numeric
Int64Index
p93
(dp94
g18
g19
(g20
(I0
tp95
g22
tp96
Rp97
(I1
(I23
tp98
g26
(S'i8'
p99
I0
I1
tp100
Rp101
(I3
S'<'
p102
NNNI-1
I-1
I0
tp103
bI00
S'\x00\x00\x00\x00\x00\x00\x00\x00\x01\x00\x00\x00\x00\x00\x00\x00\x02\x00\x00\x00\x00\x00\x00\x00\x03\x00\x00\x00\x00\x00\x00\x00\x04\x00\x00\x00\x00\x00\x00\x00\x05\x00\x00\x00\x00\x00\x00\x00\x06\x00\x00\x00\x00\x00\x00\x00\x07\x00\x00\x00\x00\x00\x00\x00\x08\x00\x00\x00\x00\x00\x00\x00\t\x00\x00\x00\x00\x00\x00\x00\n\x00\x00\x00\x00\x00\x00\x00\x0b\x00\x00\x00\x00\x00\x00\x00\x0c\x00\x00\x00\x00\x00\x00\x00\r\x00\x00\x00\x00\x00\x00\x00\x0e\x00\x00\x00\x00\x00\x00\x00\x0f\x00\x00\x00\x00\x00\x00\x00\x10\x00\x00\x00\x00\x00\x00\x00\x11\x00\x00\x00\x00\x00\x00\x00\x12\x00\x00\x00\x00\x00\x00\x00\x13\x00\x00\x00\x00\x00\x00\x00\x14\x00\x00\x00\x00\x00\x00\x00\x15\x00\x00\x00\x00\x00\x00\x00\x16\x00\x00\x00\x00\x00\x00\x00'
p104
tp105
bsg90
Nstp106
Rp107
a(lp108
g19
(g20
(I0
tp109
g22
tp110
Rp111
(I1
(I56
I23
tp112
g29
I00
(lp113
S'2016'
p114
ag114
ag114
ag114
ag114
ag114
ag114
aS'2017'
p115
ag115
ag115
ag115
ag115
ag115
ag115
aS'2018'
p116
ag116
ag116
ag116
ag116
ag116
ag116
aS'merged'
p117
ag117
aS'sig'
p118
ag118
ag118
ag118
ag118
ag118
ag118
ag118
ag118
ag118
ag118
ag118
ag118
ag118
ag118
ag118
ag118
ag118
ag118
ag118
ag118
aS'bkg'
p119
ag18
aS'HHggTauTau'
p120
aS'HHggWWdileptonic'
p121
aS'HHggWWsemileptonic'
p122
aS'VBFH'
p123
aS'VH'
p124
aS'ggH'
p125
aS'ttH'
p126
ag120
ag121
ag122
ag123
ag124
ag125
ag126
ag120
ag121
ag122
ag123
ag124
ag125
ag126
aS'bkg_mass'
p127
aS'data_obs'
p128
aS'HHggTauTau_2016_hgg'
p129
aS'HHggWWdileptonic_2016_hgg'
p130
aS'HHggWWsemileptonic_2016_hgg'
p131
aS'VBFH_2016_hgg'
p132
aS'VH_2016_hgg'
p133
aS'ggH_2016_hgg'
p134
aS'ttH_2016_hgg'
p135
aS'HHggTauTau_2017_hgg'
p136
aS'HHggWWdileptonic_2017_hgg'
p137
aS'HHggWWsemileptonic_2017_hgg'
p138
aS'VBFH_2017_hgg'
p139
aS'VH_2017_hgg'
p140
aS'ggH_2017_hgg'
p141
aS'ttH_2017_hgg'
p142
aS'HHggTauTau_2018_hgg'
p143
aS'HHggWWdileptonic_2018_hgg'
p144
aS'HHggWWsemileptonic_2018_hgg'
p145
aS'VBFH_2018_hgg'
p146
aS'VH_2018_hgg'
p147
aS'ggH_2018_hgg'
p148
aS'ttH_2018_hgg'
p149
ag127
ag128
ag120
ag121
ag122
ag123
ag124
ag125
ag126
ag120
ag121
ag122
ag123
ag124
ag125
ag126
ag120
ag121
ag122
ag123
ag124
ag125
ag126
aS'-'
p150
ag150
aS'SR1'
p151
ag151
ag151
ag151
ag151
ag151
ag151
ag151
ag151
ag151
ag151
ag151
ag151
ag151
ag151
ag151
ag151
ag151
ag151
ag151
ag151
ag151
ag151
aS'/home/users/fsetti/ic_flashgg/CMSSW_10_2_13/src/flashggFinalFit/files_systs/21Apr2022//ws_signal_2016/output_HHggTauTau_M125_13TeV_pythia8_HHggTauTau.root'
p152
aS'/home/users/fsetti/ic_flashgg/CMSSW_10_2_13/src/flashggFinalFit/files_systs/21Apr2022//ws_signal_2016/output_HHggWWdileptonic_M125_13TeV_pythia8_HHggWWdileptonic.root'
p153
aS'/home/users/fsetti/ic_flashgg/CMSSW_10_2_13/src/flashggFinalFit/files_systs/21Apr2022//ws_signal_2016/output_HHggWWsemileptonic_M125_13TeV_pythia8_HHggWWsemileptonic.root'
p154
aS'/home/users/fsetti/ic_flashgg/CMSSW_10_2_13/src/flashggFinalFit/files_systs/21Apr2022//ws_signal_2016/output_VBFH_M125_13TeV_pythia8_VBFH.root'
p155
aS'/home/users/fsetti/ic_flashgg/CMSSW_10_2_13/src/flashggFinalFit/files_systs/21Apr2022//ws_signal_2016/output_VH_M125_13TeV_pythia8_VH.root'
p156
aS'/home/users/fsetti/ic_flashgg/CMSSW_10_2_13/src/flashggFinalFit/files_systs/21Apr2022//ws_signal_2016/output_ggH_M125_13TeV_pythia8_ggH.root'
p157
aS'/home/users/fsetti/ic_flashgg/CMSSW_10_2_13/src/flashggFinalFit/files_systs/21Apr2022//ws_signal_2016/output_ttH_M125_13TeV_pythia8_ttH.root'
p158
aS'/home/users/fsetti/ic_flashgg/CMSSW_10_2_13/src/flashggFinalFit/files_systs/21Apr2022//ws_signal_2017/output_HHggTauTau_M125_13TeV_pythia8_HHggTauTau.root'
p159
aS'/home/users/fsetti/ic_flashgg/CMSSW_10_2_13/src/flashggFinalFit/files_systs/21Apr2022//ws_signal_2017/output_HHggWWdileptonic_M125_13TeV_pythia8_HHggWWdileptonic.root'
p160
aS'/home/users/fsetti/ic_flashgg/CMSSW_10_2_13/src/flashggFinalFit/files_systs/21Apr2022//ws_signal_2017/output_HHggWWsemileptonic_M125_13TeV_pythia8_HHggWWsemileptonic.root'
p161
aS'/home/users/fsetti/ic_flashgg/CMSSW_10_2_13/src/flashggFinalFit/files_systs/21Apr2022//ws_signal_2017/output_VBFH_M125_13TeV_pythia8_VBFH.root'
p162
aS'/home/users/fsetti/ic_flashgg/CMSSW_10_2_13/src/flashggFinalFit/files_systs/21Apr2022//ws_signal_2017/output_VH_M125_13TeV_pythia8_VH.root'
p163
aS'/home/users/fsetti/ic_flashgg/CMSSW_10_2_13/src/flashggFinalFit/files_systs/21Apr2022//ws_signal_2017/output_ggH_M125_13TeV_pythia8_ggH.root'
p164
aS'/home/users/fsetti/ic_flashgg/CMSSW_10_2_13/src/flashggFinalFit/files_systs/21Apr2022//ws_signal_2017/output_ttH_M125_13TeV_pythia8_ttH.root'
p165
aS'/home/users/fsetti/ic_flashgg/CMSSW_10_2_13/src/flashggFinalFit/files_systs/21Apr2022//ws_signal_2018/output_HHggTauTau_M125_13TeV_pythia8_HHggTauTau.root'
p166
aS'/home/users/fsetti/ic_flashgg/CMSSW_10_2_13/src/flashggFinalFit/files_systs/21Apr2022//ws_signal_2018/output_HHggWWdileptonic_M125_13TeV_pythia8_HHggWWdileptonic.root'
p167
aS'/home/users/fsetti/ic_flashgg/CMSSW_10_2_13/src/flashggFinalFit/files_systs/21Apr2022//ws_signal_2018/output_HHggWWsemileptonic_M125_13TeV_pythia8_HHggWWsemileptonic.root'
p168
aS'/home/users/fsetti/ic_flashgg/CMSSW_10_2_13/src/flashggFinalFit/files_systs/21Apr2022//ws_signal_2018/output_VBFH_M125_13TeV_pythia8_VBFH.root'
p169
aS'/home/users/fsetti/ic_flashgg/CMSSW_10_2_13/src/flashggFinalFit/files_systs/21Apr2022//ws_signal_2018/output_VH_M125_13TeV_pythia8_VH.root'
p170
aS'/home/users/fsetti/ic_flashgg/CMSSW_10_2_13/src/flashggFinalFit/files_systs/21Apr2022//ws_signal_2018/output_ggH_M125_13TeV_pythia8_ggH.root'
p171
aS'/home/users/fsetti/ic_flashgg/CMSSW_10_2_13/src/flashggFinalFit/files_systs/21Apr2022//ws_signal_2018/output_ttH_M125_13TeV_pythia8_ttH.root'
p172
ag150
ag150
aS'HHggTauTau_125_13TeV_SR1'
p173
aS'HHggWWdileptonic_125_13TeV_SR1'
p174
aS'HHggWWsemileptonic_125_13TeV_SR1'
p175
aS'VBFH_125_13TeV_SR1'
p176
aS'VH_125_13TeV_SR1'
p177
aS'ggH_125_13TeV_SR1'
p178
aS'ttH_125_13TeV_SR1'
p179
aS'HHggTauTau_125_13TeV_SR1'
p180
aS'HHggWWdileptonic_125_13TeV_SR1'
p181
aS'HHggWWsemileptonic_125_13TeV_SR1'
p182
aS'VBFH_125_13TeV_SR1'
p183
aS'VH_125_13TeV_SR1'
p184
aS'ggH_125_13TeV_SR1'
p185
aS'ttH_125_13TeV_SR1'
p186
aS'HHggTauTau_125_13TeV_SR1'
p187
aS'HHggWWdileptonic_125_13TeV_SR1'
p188
aS'HHggWWsemileptonic_125_13TeV_SR1'
p189
aS'VBFH_125_13TeV_SR1'
p190
aS'VH_125_13TeV_SR1'
p191
aS'ggH_125_13TeV_SR1'
p192
aS'ttH_125_13TeV_SR1'
p193
ag150
ag150
aS'./Models/signal/CMS-HGG_sigfit_packaged_SR1.root'
p194
aS'./Models/signal/CMS-HGG_sigfit_packaged_SR1.root'
p195
aS'./Models/signal/CMS-HGG_sigfit_packaged_SR1.root'
p196
aS'./Models/signal/CMS-HGG_sigfit_packaged_SR1.root'
p197
aS'./Models/signal/CMS-HGG_sigfit_packaged_SR1.root'
p198
aS'./Models/signal/CMS-HGG_sigfit_packaged_SR1.root'
p199
aS'./Models/signal/CMS-HGG_sigfit_packaged_SR1.root'
p200
aS'./Models/signal/CMS-HGG_sigfit_packaged_SR1.root'
p201
aS'./Models/signal/CMS-HGG_sigfit_packaged_SR1.root'
p202
aS'./Models/signal/CMS-HGG_sigfit_packaged_SR1.root'
p203
aS'./Models/signal/CMS-HGG_sigfit_packaged_SR1.root'
p204
aS'./Models/signal/CMS-HGG_sigfit_packaged_SR1.root'
p205
aS'./Models/signal/CMS-HGG_sigfit_packaged_SR1.root'
p206
aS'./Models/signal/CMS-HGG_sigfit_packaged_SR1.root'
p207
aS'./Models/signal/CMS-HGG_sigfit_packaged_SR1.root'
p208
aS'./Models/signal/CMS-HGG_sigfit_packaged_SR1.root'
p209
aS'./Models/signal/CMS-HGG_sigfit_packaged_SR1.root'
p210
aS'./Models/signal/CMS-HGG_sigfit_packaged_SR1.root'
p211
aS'./Models/signal/CMS-HGG_sigfit_packaged_SR1.root'
p212
aS'./Models/signal/CMS-HGG_sigfit_packaged_SR1.root'
p213
aS'./Models/signal/CMS-HGG_sigfit_packaged_SR1.root'
p214
aS'./Models/background/CMS-HGG_multipdf_SR1.root'
p215
ag215
aS'wsig_13TeV:hggpdfsmrel_HHggTauTau_2016_SR1_13TeV'
p216
aS'wsig_13TeV:hggpdfsmrel_HHggWWdileptonic_2016_SR1_13TeV'
p217
aS'wsig_13TeV:hggpdfsmrel_HHggWWsemileptonic_2016_SR1_13TeV'
p218
aS'wsig_13TeV:hggpdfsmrel_VBFH_2016_SR1_13TeV'
p219
aS'wsig_13TeV:hggpdfsmrel_VH_2016_SR1_13TeV'
p220
aS'wsig_13TeV:hggpdfsmrel_ggH_2016_SR1_13TeV'
p221
aS'wsig_13TeV:hggpdfsmrel_ttH_2016_SR1_13TeV'
p222
aS'wsig_13TeV:hggpdfsmrel_HHggTauTau_2017_SR1_13TeV'
p223
aS'wsig_13TeV:hggpdfsmrel_HHggWWdileptonic_2017_SR1_13TeV'
p224
aS'wsig_13TeV:hggpdfsmrel_HHggWWsemileptonic_2017_SR1_13TeV'
p225
aS'wsig_13TeV:hggpdfsmrel_VBFH_2017_SR1_13TeV'
p226
aS'wsig_13TeV:hggpdfsmrel_VH_2017_SR1_13TeV'
p227
aS'wsig_13TeV:hggpdfsmrel_ggH_2017_SR1_13TeV'
p228
aS'wsig_13TeV:hggpdfsmrel_ttH_2017_SR1_13TeV'
p229
aS'wsig_13TeV:hggpdfsmrel_HHggTauTau_2018_SR1_13TeV'
p230
aS'wsig_13TeV:hggpdfsmrel_HHggWWdileptonic_2018_SR1_13TeV'
p231
aS'wsig_13TeV:hggpdfsmrel_HHggWWsemileptonic_2018_SR1_13TeV'
p232
aS'wsig_13TeV:hggpdfsmrel_VBFH_2018_SR1_13TeV'
p233
aS'wsig_13TeV:hggpdfsmrel_VH_2018_SR1_13TeV'
p234
aS'wsig_13TeV:hggpdfsmrel_ggH_2018_SR1_13TeV'
p235
aS'wsig_13TeV:hggpdfsmrel_ttH_2018_SR1_13TeV'
p236
aS'multipdf:CMS_hgg_SR1_13TeV_bkgshape'
p237
aS'multipdf:roohist_data_mass_SR1'
p238
aI1000
aI1000
aI1000
aI1000
aI1000
aI1000
aI1000
aI1000
aI1000
aI1000
aI1000
aI1000
aI1000
aI1000
aI1000
aI1000
aI1000
aI1000
aI1000
aI1000
aI1000
aF1.0
aI-1
aF0.043670947766207016
aF0.015012294522439776
aF0.004560052355144805
aF0.01091967909618736
aF0.2579778932915551
aF0.014340034756154682
aF0.05390106297077288
aF0.04930442491607718
aF0.017648095035692816
aF0.008921404045372205
aF0.012117787440041342
aF0.3197967011129281
aF-0.004337517491744419
aF0.0641150856190945
aF0.07418069780400847
aF0.025207785329170344
aF0.007962197533452554
aF0.00440336414764924
aF0.4620594344435054
aF0.0012666304436281736
aF0.11177957545726258
ag150
ag150
aF1.0058879171343904e-07
aF1.1730001266342059e-08
aF1.618210949315985e-08
aF1.2419479475408973e-05
aF0.00030182686052569556
aF5.339095024899578e-05
aF4.803610346278259e-05
aF1.1903369582037187e-07
aF1.4551306849994089e-08
aF3.296949772142563e-08
aF2.637720250637323e-05
aF0.0003933401246129096
aF1.88140579911888e-05
aF6.417439065879425e-05
aF2.63482079059265e-07
aF3.004889738976312e-08
aF4.2793869602712256e-08
aF2.810728419660453e-05
aF0.0008560463563031351
aF0.00046319147868895225
aF0.0001376840198772654
ag150
ag150
aF0.043670947766207016
aF0.015012294522439776
aF0.004560052355144805
aF0.01091967909618736
aF0.2579778932915551
aF0.014340034756154682
aF0.05390106297077288
aF0.04930442491607718
aF0.017648095035692816
aF0.008921404045372205
aF0.012117787440041342
aF0.3197967011129281
aF-0.004337517491744419
aF0.0641150856190945
aF0.07418069780400847
aF0.025207785329170344
aF0.007962197533452554
aF0.00440336414764924
aF0.4620594344435054
aF0.0012666304436281736
aF0.11177957545726258
ag150
ag150
aF0.043670947766207016
aF0.015012294522439776
aF0.004560052355144805
aF0.01091967909618736
aF0.2579778932915551
aF0.014340034756154682
aF0.05390106297077288
aF0.04930442491607718
aF0.017648095035692816
aF0.008921404045372205
aF0.012117787440041342
aF0.3197967011129281
aF-0.004337517491744419
aF0.0641150856190945
aF0.07418069780400847
aF0.025207785329170344
aF0.007962197533452554
aF0.00440336414764924
aF0.4620594344435054
aF0.0012666304436281736
aF0.11177957545726258
ag150
ag150
aF0.04358982332775942
aF0.014983882975624337
aF0.004552091555958423
aF0.010908368193791734
aF0.257490756187108
aF0.014322768301332315
aF0.053796361706660516
aF0.0491730826329745
aF0.01760058522787878
aF0.008897988874714767
aF0.012099674206951327
aF0.318875731125422
aF-0.004323007665192197
aF0.06394681974882578
aF0.07406045745647322
aF0.025166894493025855
aF0.007950356626498543
aF0.004394502526260835
aF0.4613090126001687
aF0.0012653554493185105
aF0.11160411167633323
ag150
ag150
aF0.043670947766207016
aF0.015012294522439776
aF0.004560052355144805
aF0.01091967909618736
aF0.2579778932915551
aF0.014340034756154682
aF0.05390106297077288
aF0.04930442491607718
aF0.017648095035692816
aF0.008921404045372205
aF0.012117787440041342
aF0.3197967011129281
aF-0.004337517491744419
aF0.0641150856190945
aF0.07418069780400847
aF0.025207785329170344
aF0.007962197533452554
aF0.00440336414764924
aF0.4620594344435054
aF0.0012666304436281736
aF0.11177957545726258
ag150
ag150
aF0.04354838384157667
aF0.014905702064069637
aF0.004550901231816802
aF0.01091967909618736
aF0.2574853119002667
aF0.014340034756154682
aF0.053565561122907474
aF0.049179372767435336
aF0.017535905277447326
aF0.008901446422495535
aF0.012117787440041342
aF0.3194081181116504
aF-0.0042397542023872355
aF0.06376025617413655
aF0.07395826268793519
aF0.025031946462555698
aF0.0079462303655649
aF0.00440336414764924
aF0.46140124657983117
aF0.0012666304436281736
aF0.11125526439531017
ag150
ag150
aF0.043670947766207016
aF0.015012294522439776
aF0.004560052355144805
aF0.01091967909618736
aF0.2579778932915551
aF0.014340034756154682
aF0.05390106297077288
aF0.04930442491607718
aF0.017648095035692816
aF0.008921404045372205
aF0.012117787440041342
aF0.3197967011129281
aF-0.004337517491744419
aF0.0641150856190945
aF0.07418069780400847
aF0.025207785329170344
aF0.007962197533452554
aF0.00440336414764924
aF0.4620594344435054
aF0.0012666304436281736
aF0.11177957545726258
ag150
ag150
aF0.04366729464445689
aF0.015009559173537792
aF0.004559795856514827
aF0.01091967909618736
aF0.2579720812132892
aF0.01433860285838532
aF0.053898554393846
aF0.04930146878194397
aF0.01764577350571353
aF0.008920948299991042
aF0.012117787440041342
aF0.3197871069717898
aF-0.004337517491744419
aF0.0641077878801766
aF0.07417700032934596
aF0.025205125954468853
aF0.007961923445200464
aF0.00440336414764924
aF0.4620524880865977
aF0.0012666304436281736
aF0.11176980159911538
ag150
ag150
aF0.043670947766207016
aF0.015012294522439776
aF0.004560052355144805
aF0.01091967909618736
aF0.2579778932915551
aF0.014340034756154682
aF0.05390106297077288
aF0.04930442491607718
aF0.017648095035692816
aF0.008921404045372205
aF0.012117787440041342
aF0.3197967011129281
aF-0.004337517491744419
aF0.0641150856190945
aF0.07418069780400847
aF0.025207785329170344
aF0.007962197533452554
aF0.00440336414764924
aF0.4620594344435054
aF0.0012666304436281736
aF0.11177957545726258
ag150
ag150
aF0.04366544695381907
aF0.015008242435142777
aF0.004559640606150459
aF0.01091967909618736
aF0.2579715366904144
aF0.014337822326482692
aF0.05389545679786277
aF0.04929961219123675
aF0.017644300399305864
aF0.008920593945036711
aF0.012117787440041342
aF0.31978091965055044
aF-0.004337517491744419
aF0.064102566621426
aF0.0741724608675714
aF0.02520197552936004
aF0.007961496661139131
aF0.00440336414764924
aF0.46204949711702326
aF0.0012666304436281736
aF0.11175501297515636
ag150
ag150
aF0.043670947766207016
aF0.015012294522439776
aF0.004560052355144805
aF0.01091967909618736
aF0.2579778932915551
aF0.014340034756154682
aF0.05390106297077288
aF0.04930442491607718
aF0.017648095035692816
aF0.008921404045372205
aF0.012117787440041342
aF0.3197967011129281
aF-0.004337517491744419
aF0.0641150856190945
aF0.07418069780400847
aF0.025207785329170344
aF0.007962197533452554
aF0.00440336414764924
aF0.4620594344435054
aF0.0012666304436281736
aF0.11177957545726258
ag150
ag150
aF0.043654872285823175
aF0.015001522847134737
aF0.004558977007497118
aF0.01091967909618736
aF0.2579467772689729
aF0.014332482233512928
aF0.053890131744828436
aF0.04928705780276356
aF0.017635844345709313
aF0.008918897807713143
aF0.012117787440041342
aF0.3197469755878838
aF-0.004337517491744419
aF0.0640781501043486
aF0.07416074131070265
aF0.02519449419767079
aF0.007960802739485186
aF0.00440336414764924
aF0.46202580256613274
aF0.0012666304436281736
aF0.11173280157203794
ag150
ag150
aF0.043670947766207016
aF0.015012294522439776
aF0.004560052355144805
aF0.01091967909618736
aF0.2579778932915551
aF0.014340034756154682
aF0.05390106297077288
aF0.04930442491607718
aF0.017648095035692816
aF0.008921404045372205
aF0.012117787440041342
aF0.3197967011129281
aF-0.004337517491744419
aF0.0641150856190945
aF0.07418069780400847
aF0.025207785329170344
aF0.007962197533452554
aF0.00440336414764924
aF0.4620594344435054
aF0.0012666304436281736
aF0.11177957545726258
ag150
ag150
aF0.043598155553813106
aF0.01496404247359575
aF0.004555321679743403
aF0.01091967909618736
aF0.25776950380997743
aF0.01430144766104147
aF0.053853917763325
aF0.049228535920627814
aF0.01759551320757237
aF0.008910371579950966
aF0.012117787440041342
aF0.31958767411491207
aF-0.004337517491744419
aF0.06396825566302461
aF0.07405558949044486
aF0.025126743927857825
aF0.007953827254202418
aF0.00440336414764924
aF0.46189951434334187
aF0.0012666304436281736
aF0.11150544278146254
ag150
ag150
aF0.043670947766207016
aF0.015012294522439776
aF0.004560052355144805
aF0.01091967909618736
aF0.2579778932915551
aF0.014340034756154682
aF0.05390106297077288
aF0.04930442491607718
aF0.017648095035692816
aF0.008921404045372205
aF0.012117787440041342
aF0.3197967011129281
aF-0.004337517491744419
aF0.0641150856190945
aF0.07418069780400847
aF0.025207785329170344
aF0.007962197533452554
aF0.00440336414764924
aF0.4620594344435054
aF0.0012666304436281736
aF0.11177957545726258
ag150
ag150
aF0.04357744077129792
aF0.014979849439267019
aF0.004550526553317965
aF0.010898304555410177
aF0.2573581790547547
aF0.014311253200997666
aF0.053807669052558
aF0.049181136593445876
aF0.017603672822326534
aF0.008899463698330126
aF0.012091386605204374
aF0.3189339079954105
aF-0.004327082195535604
aF0.06394529418722873
aF0.0740154453312038
aF0.025152087719940697
aF0.007945145216740121
aF0.004391743077273407
aF0.46100524591402625
aF0.0012640153572259557
aF0.11153475885814729
ag150
ag150
aF0.04368216764501006
aF0.015012666849546693
aF0.004558610778899938
aF0.010815684914154243
aF0.25782025004030823
aF0.014340034756154682
aF0.0536943227106819
aF0.049342089612134495
aF0.01766334888267784
aF0.008928129860621649
aF0.012048623364942888
aF0.32050199814815244
aF-0.004337517491744419
aF0.06400898263902564
aF0.07417709287848732
aF0.025214232331099384
aF0.007966682225851385
aF0.00440336414764924
aF0.4616211434771254
aF0.0012666304436281754
aF0.11126218243025214
ag150
ag150
aF0.04368928245743053
aF0.015013787243370127
aF0.004554920596059072
aF0.01091967909618736
aF0.2555709155784889
aF0.014340034756154682
aF0.053889477417133985
aF0.049279231955794124
aF0.01764275853995187
aF0.008918279552787992
aF0.012117787440041342
aF0.31806194287436557
aF-0.004337517491744419
aF0.06443033605472247
aF0.07416940425987738
aF0.025205545949275134
aF0.007974209605562567
aF0.00440336414764924
aF0.46209404630871254
aF0.0012666304436281754
aF0.11195547472172257
ag150
ag150
aF0.04369403509756355
aF0.015004797904812345
aF0.004555960163538897
aF0.010815684914154243
aF0.2536770113682598
aF0.014340034756154682
aF0.0545443067766613
aF0.04928059724677518
aF0.01765040423409349
aF0.008914519996056035
aF0.012048623364942888
aF0.31957974859589783
aF-0.004337517491744419
aF0.06318765367296196
aF0.07413148581414399
aF0.02517773387666757
aF0.007918960338349941
aF0.00440336414764924
aF0.45949494114515516
aF0.0012666304436281754
aF0.10969022724767809
ag150
ag150
aF0.04371904605469579
aF0.015020397491384022
aF0.0045890499848617195
aF0.01091967909618736
aF0.25688977896326276
aF0.014340034756154682
aF0.054725124959229265
aF0.049358835398760556
aF0.01766262312755115
aF0.008929133860426482
aF0.012117787440041342
aF0.31776263097212626
aF-0.004337517491744419
aF0.0640512369587809
aF0.07427026671458821
aF0.025223340543078877
aF0.007994489013863999
aF0.00440336414764924
aF0.4622806127009451
aF0.0012666304436281754
aF0.1125366544051677
ag150
ag150
aF0.043639806470415
aF0.015009808836429269
aF0.004534869843079866
aF0.01091967909618736
aF0.2592468297623184
aF0.014340034756154682
aF0.054979259725617756
aF0.04931371839339141
aF0.01765240697761645
aF0.008950912444104436
aF0.012117787440041342
aF0.31817415105300084
aF-0.004337517491744419
aF0.06293155367045877
aF0.07424355788476696
aF0.025235061185627378
aF0.007947876980387819
aF0.00440336414764924
aF0.46098463271406903
aF0.0012666304436281754
aF0.11057047346481363
ag150
ag150
aF0.043707419864186435
aF0.015008402977737036
aF0.004568410695802649
aF0.011991368148784633
aF0.25744583515243236
aF0.014340034756154682
aF0.05540008698423693
aF0.04923632509801547
aF0.017658028907875854
aF0.008900480163011516
aF0.012680005403484493
aF0.3186182643746438
aF-0.004337517491744419
aF0.06483282929393396
aF0.0741298778130726
aF0.025201334982127253
aF0.007932438432139964
aF0.006099637200062799
aF0.46336972448057306
aF0.0012666304436281754
aF0.11412692892806053
ag150
ag150
aF0.04355550763381259
aF0.015007859415151627
aF0.004500349729154233
aF0.01086150512914987
aF0.2586369702122227
aF0.014340034756154682
aF0.052434623336304775
aF0.04926352155364144
aF0.01766201799859424
aF0.008847417270174998
aF0.011392415024912473
aF0.3175935328847998
aF-0.004337517491744419
aF0.06304730971882709
aF0.07407705927562194
aF0.025201933495679573
aF0.007868413881234815
aF0.00440336414764924
aF0.4568397077098241
aF0.0012666304436281754
aF0.11327308425666444
ag150
ag150
aF0.04380256212956893
aF0.015006783752239086
aF0.004628175846098786
aF0.013265916882166865
aF0.26216930186853626
aF0.017211728795781086
aF0.05433284711235252
aF0.0493529474234953
aF0.017645261388016992
aF0.009018387617045273
aF0.014753235574132748
aF0.3205856090346362
aF0.00376878941786414
aF0.0629960637129507
aF0.07427037774684983
aF0.025210622204117697
aF0.008082626056789121
aF0.006099637200062799
aF0.46843765137032545
aF0.0012666304436281754
aF0.11072824294875196
ag150
ag150
aF0.04381625391390583
aF0.015033256080736036
aF0.004592353995653381
aF0.009827188559619952
aF0.2603635259817713
aF0.024233252703162407
aF0.05416629004944778
aF0.04934350358768834
aF0.017659833173790836
aF0.00900103221849093
aF0.010616228174874414
aF0.31661543594742286
aF0.00376878941786414
aF0.061261062444498096
aF0.0743385737304078
aF0.02525299486546363
aF0.008051551976357556
aF0.006415032028520313
aF0.46125188050786775
aF0.0012666304436281754
aF0.11124209178971707
ag150
ag150
aF0.04356370654983503
aF0.015003455554326894
aF0.0045562480894459694
aF0.011991368148784633
aF0.2593541586308851
aF0.017645997556374714
aF0.05262894311366097
aF0.04927510712618557
aF0.017646577782911902
aF0.0089119575478662
aF0.012680005403484493
aF0.31882807159422827
aF-0.004337517491744419
aF0.06263598303226885
aF0.07400662718719836
aF0.025204935820537257
aF0.007859461692020094
aF0.004751229766001728
aF0.4620403869640011
aF0.0012666304436281754
aF0.11111788883343952
ag150
ag150
aF0.043672740339467817
aF0.015013054072443693
aF0.004560052355144792
aF0.01091967909618736
aF0.2579778932915552
aF0.014340034756154682
aF0.05390106297077289
aF0.04930442491607747
aF0.017650260210963248
aF0.008921404045372196
aF0.012117787440041342
aF0.3197967011129282
aF-0.004337517491744419
aF0.06411508561909453
aF0.07417830327653285
aF0.02520853368989037
aF0.007962197533452545
aF0.00440336414764924
aF0.4620594344435056
aF0.0012666304436281754
aF0.11177957545726251
ag150
ag150
aF0.043677114767480936
aF0.015012294522439825
aF0.004560052355144792
aF0.01091967909618736
aF0.2579778932915552
aF0.014340034756154682
aF0.05390106297077289
aF0.04930438344723181
aF0.017647943104181576
aF0.008921404045372196
aF0.012117787440041342
aF0.3197967011129282
aF-0.004337517491744419
aF0.06411508561909453
aF0.07418069780400864
aF0.02521253405517879
aF0.007962197533452545
aF0.00440336414764924
aF0.46105636894676305
aF0.0012666304436281754
aF0.11217280080083855
ag150
ag150
aF0.04369652557004627
aF0.015022417642652486
aF0.004567834156053185
aF0.01091967909618736
aF0.2579778932915552
aF0.014340034756154682
aF0.053464380424466156
aF0.04932336997052575
aF0.017659116317702037
aF0.008918174511292893
aF0.012117787440041342
aF0.3205650465429765
aF-0.004337517491744419
aF0.06411508561909453
aF0.07419523434048884
aF0.02521000371047944
aF0.007973723351821192
aF0.00440336414764924
aF0.4631241924559188
aF0.0012666304436281754
aF0.11177957545726251
ag150
ag150
aF0.04362928517786732
aF0.014999905869627236
aF0.00455491100557718
aF0.01091967909618736
aF0.2534579244647053
aF0.014340034756154682
aF0.052888899709330424
aF0.0492053264015955
aF0.017632720835719165
aF0.008909426911176991
aF0.012117787440041342
aF0.3197967011129282
aF-0.004337517491744419
aF0.06436838444244146
aF0.07417195694320243
aF0.025186580238254083
aF0.007950110374591665
aF0.00440336414764924
aF0.46223304552912037
aF0.0012666304436281754
aF0.11229373856083782
ag150
ag150
aF0.043708372871652884
aF0.015021020691744448
aF0.004561580620177249
aF0.010919596273907742
aF0.2583339810305041
aF0.01406822957344012
aF0.05375867336862873
aF0.04931677132628464
aF0.01764712705930471
aF0.008916473924920981
aF0.012257769019125824
aF0.3193918294755831
aF-0.004389713086077696
aF0.06344624454676968
aF0.07421814168707833
aF0.025211445847256483
aF0.007963854635340571
aF0.004285649509105984
aF0.4618813869166524
aF0.0013834535349695684
aF0.10989301745187265
ag150
ag150
aF0.0436306722897339
aF0.015005937315401308
aF0.004557090334236487
aF0.010838885689122257
aF0.257673808717052
aF0.014536640738473777
aF0.05409829292821957
aF0.04927988061520301
aF0.01764806991706896
aF0.008924380439607792
aF0.011984455162809505
aF0.31979855094491705
aF-0.004274225255172243
aF0.06456247986281692
aF0.07407974643968455
aF0.025196324692549683
aF0.007951187660672664
aF0.004564541759983097
aF0.46160348286609665
aF0.0013973209532141557
aF0.11301376648102328
ag150
ag150
aF0.0439147602781771
aF0.015050491044895293
aF0.004604636310563261
aF0.01114809323547987
aF0.26335492295251933
aF0.0141967895377146
aF0.05536219102218889
aF0.04930834785012312
aF0.01764773808280316
aF0.008924994821918095
aF0.012081676628657032
aF0.31999171756185557
aF-0.004312800959041828
aF0.06422657790503496
aF0.07418321995778576
aF0.025208296260492397
aF0.007963794102249108
aF0.004456823983770399
aF0.46203453551191614
aF0.001329867638426999
aF0.11175664723687495
ag150
ag150
aF0.04342106867226852
aF0.014972307855250855
aF0.004515286519746179
aF0.010679219395415891
aF0.2524833639233955
aF0.014485349237949927
aF0.05239119408769933
aF0.04930222165427677
aF0.01764859305431996
aF0.008918454294486709
aF0.012151914571014973
aF0.3195588558265768
aF-0.004361456874400438
aF0.0640039489139294
aF0.07417923697341473
aF0.02520755682615705
aF0.0079605137104057
aF0.004346084524476652
aF0.46206224214932606
aF0.001203105352642524
aF0.11178814608081729
ag150
ag150
aF0.043915921013805176
aF0.015050362491474985
aF0.004601464754977718
aF0.011139705818876095
aF0.2624971819566065
aF0.014228164902351882
aF0.05525725020991832
aF0.049331406356483865
aF0.017652242263451884
aF0.00892763427308366
aF0.012112627841990346
aF0.3199466576102807
aF-0.004321098975126804
aF0.06415525414276148
aF0.074229957854776
aF0.025212507517595625
aF0.007965412724455738
aF0.004438923830199759
aF0.4618562420299325
aF0.0012990426265767664
aF0.11185113555623757
ag150
ag150
aF0.043416693401050595
aF0.01497210013984351
aF0.004518016383365391
aF0.010688278669118232
aF0.2533339439512313
aF0.014451090527399407
aF0.05248257220850188
aF0.049277832159742095
aF0.017643870262618464
aF0.00891596957819276
aF0.01211760436642323
aF0.31964607147922086
aF-0.0043518175538396564
aF0.06407786189755882
aF0.07412769618011002
aF0.025202754794981224
aF0.007958281293510299
aF0.004364149021119038
aF0.4622305101751261
aF0.001237323015572495
aF0.11169419809999705
ag150
ag150
aF0.043660840832768714
aF0.015009346275910494
aF0.004558944015551454
aF0.010916173178081452
aF0.2577878252711404
aF0.014332132869998408
aF0.05396682412427574
aF0.04930681157379905
aF0.0176487867295873
aF0.008922524893283464
aF0.012117312985159508
aF0.31977830022694975
aF-0.004337212967941965
aF0.0650198776577856
aF0.07418663908353255
aF0.025209795687073842
aF0.007961999648750932
aF0.00440328804255238
aF0.46216351760974655
aF0.0012665796350848045
aF0.11316220749710344
ag150
ag150
aF0.04368113543581268
aF0.015015262890197542
aF0.004561185166303644
aF0.010923178037009687
aF0.25816728434064795
aF0.01434790399817696
aF0.053906293444692055
aF0.0493020115516411
aF0.017647395522272943
aF0.008920263105936691
aF0.012118263175439598
aF0.31981508074372117
aF-0.0043378213639227005
aF0.06321877048530629
aF0.07417474861260932
aF0.025205768421530286
aF0.007962399185982849
aF0.0044034428813430285
aF0.4619561995821311
aF0.0012666817909091754
aF0.11040831577243995
ag150
ag150
aF0.04367516528621205
aF0.015013801901918776
aF0.004560736620244612
aF0.010920869953693185
aF0.2580601694871186
aF0.014342558429239212
aF0.054404682967894885
aF0.049304941169182825
aF0.017648186955505994
aF0.008921654303263762
aF0.012117661461119675
aF0.3197564679120828
aF-0.004337455180462428
aF0.06415772068428072
aF0.07418144752399707
aF0.025207981900231685
aF0.007962121821031171
aF0.004403367448720358
aF0.46214094178218484
aF0.0012666158715050856
aF0.11179302314457681
ag150
ag150
aF0.04366709080539919
aF0.015010899278543193
aF0.00455941952121091
aF0.01091858684952861
aF0.2579008353108974
aF0.014337713679235625
aF0.053435808212081944
aF0.049303905563543554
aF0.01764799538942417
aF0.008921137610059767
aF0.012117919879242267
aF0.3198373762068613
aF-0.00433758020353133
aF0.06407223262331237
aF0.07417997901643004
aF0.025207568463038278
aF0.00796227874311966
aF0.004403363864336851
aF0.461977083540251
aF0.001266646937064705
aF0.11176453023210436
ag150
ag150
aF0.04360245772504872
aF0.015001821077470672
aF0.004517677181895456
aF0.010637556772477451
aF0.24837542771726154
aF0.014128952990591186
aF0.052492344004163485
aF0.04933524787615252
aF0.01766027033217561
aF0.008953462278682453
aF0.012382093740216649
aF0.3200938551464322
aF-0.0043361218422172075
aF0.06422760423048918
aF0.07424403033916939
aF0.025232073271413004
aF0.008006734410221419
aF0.004404068071644245
aF0.46459349384583953
aF0.0034070273249011632
aF0.11252468604679362
ag150
ag150
aF0.04372206273629224
aF0.015018672632710946
aF0.004596080899721333
aF0.011224534290438013
aF0.26701727743236703
aF0.01453771696334026
aF0.05509467381493455
aF0.049246940522185575
aF0.017622685430795874
aF0.008859105886231879
aF0.01144849330207219
aF0.3194366297969466
aF-0.004340516414798602
aF0.06398175541304346
aF0.07400652603834208
aF0.025155594639817244
aF0.00787741815821292
aF0.004399044861037713
aF0.45586796335493807
aF-0.003411894737324256
aF0.10942484826793941
ag150
ag150
aF0.04361864439200035
aF0.015004401845082612
aF0.004528794001742609
aF0.010772860900261028
aF0.25045773878429745
aF0.014174857875949824
aF0.05285124711710584
aF0.049325840738260934
aF0.01765771449833941
aF0.008945238632050406
aF0.012365662350862991
aF0.3200136365496172
aF-0.004335893960610547
aF0.0641724370092795
aF0.07423254800113184
aF0.02522792036585068
aF0.007998532108704525
aF0.004404088514698045
aF0.46434147400971115
aF0.003275380449774023
aF0.11243896269574259
ag150
ag150
aF0.043707719188745504
aF0.015015972340232369
aF0.004583844229541058
aF0.01106021025780888
aF0.264606472332149
aF0.014486464211722587
aF0.054673859211620664
aF0.049273073883349644
aF0.017632935671631732
aF0.008885856256810216
aF0.011690005637677737
aF0.3195482167815917
aF-0.004340012967995016
aF0.06402859831662815
aF0.07407979727851313
aF0.025174308009832964
aF0.007907513160532686
aF0.004401218861723769
aF0.4579831788250587
aF-0.002099770506575671
aF0.11042025116469764
ag150
ag150
atp239
ba(lp240
g15
(g16
(dp241
g18
g19
(g20
(I0
tp242
g22
tp243
Rp244
(I1
(I56
tp245
g29
I00
(lp246
g33
ag34
ag35
ag36
ag37
ag38
ag39
ag40
ag41
ag42
ag43
ag44
ag45
ag46
ag47
ag48
ag49
ag50
ag51
ag52
ag53
ag54
ag55
ag56
ag57
ag58
ag59
ag60
ag61
ag62
ag63
ag64
ag65
ag66
ag67
ag68
ag69
ag70
ag71
ag72
ag73
ag74
ag75
ag76
ag77
ag78
ag79
ag80
ag81
ag82
ag83
ag84
ag85
ag86
ag87
ag88
atp247
bsg90
Nstp248
Rp249
a(dp250
S'0.14.1'
p251
(dp252
S'axes'
p253
g14
sS'blocks'
p254
(lp255
(dp256
S'mgr_locs'
p257
c__builtin__
slice
p258
(I0
I56
I1
tp259
Rp260
sS'values'
p261
g111
sasstp262
bsb.