ccopy_reg
_reconstructor
p0
(cpandas.core.frame
DataFrame
p1
c__builtin__
object
p2
Ntp3
Rp4
(dp5
S'_metadata'
p6
(lp7
sS'_typ'
p8
S'dataframe'
p9
sS'_data'
p10
g0
(cpandas.core.internals
BlockManager
p11
g2
Ntp12
Rp13
((lp14
cpandas.core.indexes.base
_new_Index
p15
(cpandas.core.indexes.base
Index
p16
(dp17
S'data'
p18
cnumpy.core.multiarray
_reconstruct
p19
(cnumpy
ndarray
p20
(I0
tp21
S'b'
p22
tp23
Rp24
(I1
(I56
tp25
cnumpy
dtype
p26
(S'O8'
p27
I0
I1
tp28
Rp29
(I3
S'|'
p30
NNNI-1
I-1
I63
tp31
bI00
(lp32
S'year'
p33
aS'type'
p34
aS'procOriginal'
p35
aS'proc'
p36
aS'proc_s0'
p37
aS'cat'
p38
aS'inputWSFile'
p39
aS'nominalDataName'
p40
aS'modelWSFile'
p41
aS'model'
p42
aS'rate'
p43
aS'nominal_yield'
p44
aS'sumw2'
p45
aS'nominal_yield_COWCorr'
p46
aS'weight_electron_veto_sf_Diphoton_Photon_up_yield'
p47
aS'weight_electron_veto_sf_Diphoton_Photon_down_yield'
p48
aS'weight_electron_id_sf_SelectedElectron_up_yield'
p49
aS'weight_electron_id_sf_SelectedElectron_down_yield'
p50
aS'weight_muon_id_sfSTAT_SelectedMuon_up_yield'
p51
aS'weight_muon_id_sfSTAT_SelectedMuon_down_yield'
p52
aS'weight_muon_id_sfSYS_SelectedMuon_up_yield'
p53
aS'weight_muon_id_sfSYS_SelectedMuon_down_yield'
p54
aS'weight_muon_iso_sfSTAT_SelectedMuon_up_yield'
p55
aS'weight_muon_iso_sfSTAT_SelectedMuon_down_yield'
p56
aS'weight_muon_iso_sfSYS_SelectedMuon_up_yield'
p57
aS'weight_muon_iso_sfSYS_SelectedMuon_down_yield'
p58
aS'weight_trigger_sf_up_yield'
p59
aS'weight_trigger_sf_down_yield'
p60
aS'JER_up_yield'
p61
aS'JER_down_yield'
p62
aS'JES_up_yield'
p63
aS'JES_down_yield'
p64
aS'MET_JER_up_yield'
p65
aS'MET_JER_down_yield'
p66
aS'MET_JES_up_yield'
p67
aS'MET_JES_down_yield'
p68
aS'MET_Unclustered_up_yield'
p69
aS'MET_Unclustered_down_yield'
p70
aS'Muon_pt_up_yield'
p71
aS'Muon_pt_down_yield'
p72
aS'Tau_pt_up_yield'
p73
aS'Tau_pt_down_yield'
p74
aS'weight_btag_deepjet_sf_SelectedJet_jes_up_yield'
p75
aS'weight_btag_deepjet_sf_SelectedJet_jes_down_yield'
p76
aS'weight_btag_deepjet_sf_SelectedJet_lfstats1_up_yield'
p77
aS'weight_btag_deepjet_sf_SelectedJet_lfstats1_down_yield'
p78
aS'weight_btag_deepjet_sf_SelectedJet_lfstats2_up_yield'
p79
aS'weight_btag_deepjet_sf_SelectedJet_lfstats2_down_yield'
p80
aS'weight_btag_deepjet_sf_SelectedJet_hfstats1_up_yield'
p81
aS'weight_btag_deepjet_sf_SelectedJet_hfstats1_down_yield'
p82
aS'weight_btag_deepjet_sf_SelectedJet_hfstats2_up_yield'
p83
aS'weight_btag_deepjet_sf_SelectedJet_hfstats2_down_yield'
p84
aS'weight_btag_deepjet_sf_SelectedJet_cferr1_up_yield'
p85
aS'weight_btag_deepjet_sf_SelectedJet_cferr1_down_yield'
p86
aS'weight_btag_deepjet_sf_SelectedJet_cferr2_up_yield'
p87
aS'weight_btag_deepjet_sf_SelectedJet_cferr2_down_yield'
p88
atp89
bsS'name'
p90
Nstp91
Rp92
ag15
(cpandas.core.indexes.numeric
Int64Index
p93
(dp94
g18
g19
(g20
(I0
tp95
g22
tp96
Rp97
(I1
(I23
tp98
g26
(S'i8'
p99
I0
I1
tp100
Rp101
(I3
S'<'
p102
NNNI-1
I-1
I0
tp103
bI00
S'\x00\x00\x00\x00\x00\x00\x00\x00\x01\x00\x00\x00\x00\x00\x00\x00\x02\x00\x00\x00\x00\x00\x00\x00\x03\x00\x00\x00\x00\x00\x00\x00\x04\x00\x00\x00\x00\x00\x00\x00\x05\x00\x00\x00\x00\x00\x00\x00\x06\x00\x00\x00\x00\x00\x00\x00\x07\x00\x00\x00\x00\x00\x00\x00\x08\x00\x00\x00\x00\x00\x00\x00\t\x00\x00\x00\x00\x00\x00\x00\n\x00\x00\x00\x00\x00\x00\x00\x0b\x00\x00\x00\x00\x00\x00\x00\x0c\x00\x00\x00\x00\x00\x00\x00\r\x00\x00\x00\x00\x00\x00\x00\x0e\x00\x00\x00\x00\x00\x00\x00\x0f\x00\x00\x00\x00\x00\x00\x00\x10\x00\x00\x00\x00\x00\x00\x00\x11\x00\x00\x00\x00\x00\x00\x00\x12\x00\x00\x00\x00\x00\x00\x00\x13\x00\x00\x00\x00\x00\x00\x00\x14\x00\x00\x00\x00\x00\x00\x00\x15\x00\x00\x00\x00\x00\x00\x00\x16\x00\x00\x00\x00\x00\x00\x00'
p104
tp105
bsg90
Nstp106
Rp107
a(lp108
g19
(g20
(I0
tp109
g22
tp110
Rp111
(I1
(I56
I23
tp112
g29
I00
(lp113
S'2016'
p114
ag114
ag114
ag114
ag114
ag114
ag114
aS'2017'
p115
ag115
ag115
ag115
ag115
ag115
ag115
aS'2018'
p116
ag116
ag116
ag116
ag116
ag116
ag116
aS'merged'
p117
ag117
aS'sig'
p118
ag118
ag118
ag118
ag118
ag118
ag118
ag118
ag118
ag118
ag118
ag118
ag118
ag118
ag118
ag118
ag118
ag118
ag118
ag118
ag118
aS'bkg'
p119
ag18
aS'HHggTauTau'
p120
aS'HHggWWdileptonic'
p121
aS'HHggWWsemileptonic'
p122
aS'VBFH'
p123
aS'VH'
p124
aS'ggH'
p125
aS'ttH'
p126
ag120
ag121
ag122
ag123
ag124
ag125
ag126
ag120
ag121
ag122
ag123
ag124
ag125
ag126
aS'bkg_mass'
p127
aS'data_obs'
p128
aS'HHggTauTau_2016_hgg'
p129
aS'HHggWWdileptonic_2016_hgg'
p130
aS'HHggWWsemileptonic_2016_hgg'
p131
aS'VBFH_2016_hgg'
p132
aS'VH_2016_hgg'
p133
aS'ggH_2016_hgg'
p134
aS'ttH_2016_hgg'
p135
aS'HHggTauTau_2017_hgg'
p136
aS'HHggWWdileptonic_2017_hgg'
p137
aS'HHggWWsemileptonic_2017_hgg'
p138
aS'VBFH_2017_hgg'
p139
aS'VH_2017_hgg'
p140
aS'ggH_2017_hgg'
p141
aS'ttH_2017_hgg'
p142
aS'HHggTauTau_2018_hgg'
p143
aS'HHggWWdileptonic_2018_hgg'
p144
aS'HHggWWsemileptonic_2018_hgg'
p145
aS'VBFH_2018_hgg'
p146
aS'VH_2018_hgg'
p147
aS'ggH_2018_hgg'
p148
aS'ttH_2018_hgg'
p149
ag127
ag128
ag120
ag121
ag122
ag123
ag124
ag125
ag126
ag120
ag121
ag122
ag123
ag124
ag125
ag126
ag120
ag121
ag122
ag123
ag124
ag125
ag126
aS'-'
p150
ag150
aS'SR2'
p151
ag151
ag151
ag151
ag151
ag151
ag151
ag151
ag151
ag151
ag151
ag151
ag151
ag151
ag151
ag151
ag151
ag151
ag151
ag151
ag151
ag151
ag151
aS'/home/users/fsetti/ic_flashgg/CMSSW_10_2_13/src/flashggFinalFit/files_systs/21Apr2022//ws_signal_2016/output_HHggTauTau_M125_13TeV_pythia8_HHggTauTau.root'
p152
aS'/home/users/fsetti/ic_flashgg/CMSSW_10_2_13/src/flashggFinalFit/files_systs/21Apr2022//ws_signal_2016/output_HHggWWdileptonic_M125_13TeV_pythia8_HHggWWdileptonic.root'
p153
aS'/home/users/fsetti/ic_flashgg/CMSSW_10_2_13/src/flashggFinalFit/files_systs/21Apr2022//ws_signal_2016/output_HHggWWsemileptonic_M125_13TeV_pythia8_HHggWWsemileptonic.root'
p154
aS'/home/users/fsetti/ic_flashgg/CMSSW_10_2_13/src/flashggFinalFit/files_systs/21Apr2022//ws_signal_2016/output_VBFH_M125_13TeV_pythia8_VBFH.root'
p155
aS'/home/users/fsetti/ic_flashgg/CMSSW_10_2_13/src/flashggFinalFit/files_systs/21Apr2022//ws_signal_2016/output_VH_M125_13TeV_pythia8_VH.root'
p156
aS'/home/users/fsetti/ic_flashgg/CMSSW_10_2_13/src/flashggFinalFit/files_systs/21Apr2022//ws_signal_2016/output_ggH_M125_13TeV_pythia8_ggH.root'
p157
aS'/home/users/fsetti/ic_flashgg/CMSSW_10_2_13/src/flashggFinalFit/files_systs/21Apr2022//ws_signal_2016/output_ttH_M125_13TeV_pythia8_ttH.root'
p158
aS'/home/users/fsetti/ic_flashgg/CMSSW_10_2_13/src/flashggFinalFit/files_systs/21Apr2022//ws_signal_2017/output_HHggTauTau_M125_13TeV_pythia8_HHggTauTau.root'
p159
aS'/home/users/fsetti/ic_flashgg/CMSSW_10_2_13/src/flashggFinalFit/files_systs/21Apr2022//ws_signal_2017/output_HHggWWdileptonic_M125_13TeV_pythia8_HHggWWdileptonic.root'
p160
aS'/home/users/fsetti/ic_flashgg/CMSSW_10_2_13/src/flashggFinalFit/files_systs/21Apr2022//ws_signal_2017/output_HHggWWsemileptonic_M125_13TeV_pythia8_HHggWWsemileptonic.root'
p161
aS'/home/users/fsetti/ic_flashgg/CMSSW_10_2_13/src/flashggFinalFit/files_systs/21Apr2022//ws_signal_2017/output_VBFH_M125_13TeV_pythia8_VBFH.root'
p162
aS'/home/users/fsetti/ic_flashgg/CMSSW_10_2_13/src/flashggFinalFit/files_systs/21Apr2022//ws_signal_2017/output_VH_M125_13TeV_pythia8_VH.root'
p163
aS'/home/users/fsetti/ic_flashgg/CMSSW_10_2_13/src/flashggFinalFit/files_systs/21Apr2022//ws_signal_2017/output_ggH_M125_13TeV_pythia8_ggH.root'
p164
aS'/home/users/fsetti/ic_flashgg/CMSSW_10_2_13/src/flashggFinalFit/files_systs/21Apr2022//ws_signal_2017/output_ttH_M125_13TeV_pythia8_ttH.root'
p165
aS'/home/users/fsetti/ic_flashgg/CMSSW_10_2_13/src/flashggFinalFit/files_systs/21Apr2022//ws_signal_2018/output_HHggTauTau_M125_13TeV_pythia8_HHggTauTau.root'
p166
aS'/home/users/fsetti/ic_flashgg/CMSSW_10_2_13/src/flashggFinalFit/files_systs/21Apr2022//ws_signal_2018/output_HHggWWdileptonic_M125_13TeV_pythia8_HHggWWdileptonic.root'
p167
aS'/home/users/fsetti/ic_flashgg/CMSSW_10_2_13/src/flashggFinalFit/files_systs/21Apr2022//ws_signal_2018/output_HHggWWsemileptonic_M125_13TeV_pythia8_HHggWWsemileptonic.root'
p168
aS'/home/users/fsetti/ic_flashgg/CMSSW_10_2_13/src/flashggFinalFit/files_systs/21Apr2022//ws_signal_2018/output_VBFH_M125_13TeV_pythia8_VBFH.root'
p169
aS'/home/users/fsetti/ic_flashgg/CMSSW_10_2_13/src/flashggFinalFit/files_systs/21Apr2022//ws_signal_2018/output_VH_M125_13TeV_pythia8_VH.root'
p170
aS'/home/users/fsetti/ic_flashgg/CMSSW_10_2_13/src/flashggFinalFit/files_systs/21Apr2022//ws_signal_2018/output_ggH_M125_13TeV_pythia8_ggH.root'
p171
aS'/home/users/fsetti/ic_flashgg/CMSSW_10_2_13/src/flashggFinalFit/files_systs/21Apr2022//ws_signal_2018/output_ttH_M125_13TeV_pythia8_ttH.root'
p172
ag150
ag150
aS'HHggTauTau_125_13TeV_SR2'
p173
aS'HHggWWdileptonic_125_13TeV_SR2'
p174
aS'HHggWWsemileptonic_125_13TeV_SR2'
p175
aS'VBFH_125_13TeV_SR2'
p176
aS'VH_125_13TeV_SR2'
p177
aS'ggH_125_13TeV_SR2'
p178
aS'ttH_125_13TeV_SR2'
p179
aS'HHggTauTau_125_13TeV_SR2'
p180
aS'HHggWWdileptonic_125_13TeV_SR2'
p181
aS'HHggWWsemileptonic_125_13TeV_SR2'
p182
aS'VBFH_125_13TeV_SR2'
p183
aS'VH_125_13TeV_SR2'
p184
aS'ggH_125_13TeV_SR2'
p185
aS'ttH_125_13TeV_SR2'
p186
aS'HHggTauTau_125_13TeV_SR2'
p187
aS'HHggWWdileptonic_125_13TeV_SR2'
p188
aS'HHggWWsemileptonic_125_13TeV_SR2'
p189
aS'VBFH_125_13TeV_SR2'
p190
aS'VH_125_13TeV_SR2'
p191
aS'ggH_125_13TeV_SR2'
p192
aS'ttH_125_13TeV_SR2'
p193
ag150
ag150
aS'./Models/signal/CMS-HGG_sigfit_packaged_SR2.root'
p194
aS'./Models/signal/CMS-HGG_sigfit_packaged_SR2.root'
p195
aS'./Models/signal/CMS-HGG_sigfit_packaged_SR2.root'
p196
aS'./Models/signal/CMS-HGG_sigfit_packaged_SR2.root'
p197
aS'./Models/signal/CMS-HGG_sigfit_packaged_SR2.root'
p198
aS'./Models/signal/CMS-HGG_sigfit_packaged_SR2.root'
p199
aS'./Models/signal/CMS-HGG_sigfit_packaged_SR2.root'
p200
aS'./Models/signal/CMS-HGG_sigfit_packaged_SR2.root'
p201
aS'./Models/signal/CMS-HGG_sigfit_packaged_SR2.root'
p202
aS'./Models/signal/CMS-HGG_sigfit_packaged_SR2.root'
p203
aS'./Models/signal/CMS-HGG_sigfit_packaged_SR2.root'
p204
aS'./Models/signal/CMS-HGG_sigfit_packaged_SR2.root'
p205
aS'./Models/signal/CMS-HGG_sigfit_packaged_SR2.root'
p206
aS'./Models/signal/CMS-HGG_sigfit_packaged_SR2.root'
p207
aS'./Models/signal/CMS-HGG_sigfit_packaged_SR2.root'
p208
aS'./Models/signal/CMS-HGG_sigfit_packaged_SR2.root'
p209
aS'./Models/signal/CMS-HGG_sigfit_packaged_SR2.root'
p210
aS'./Models/signal/CMS-HGG_sigfit_packaged_SR2.root'
p211
aS'./Models/signal/CMS-HGG_sigfit_packaged_SR2.root'
p212
aS'./Models/signal/CMS-HGG_sigfit_packaged_SR2.root'
p213
aS'./Models/signal/CMS-HGG_sigfit_packaged_SR2.root'
p214
aS'./Models/background/CMS-HGG_multipdf_SR2.root'
p215
ag215
aS'wsig_13TeV:hggpdfsmrel_HHggTauTau_2016_SR2_13TeV'
p216
aS'wsig_13TeV:hggpdfsmrel_HHggWWdileptonic_2016_SR2_13TeV'
p217
aS'wsig_13TeV:hggpdfsmrel_HHggWWsemileptonic_2016_SR2_13TeV'
p218
aS'wsig_13TeV:hggpdfsmrel_VBFH_2016_SR2_13TeV'
p219
aS'wsig_13TeV:hggpdfsmrel_VH_2016_SR2_13TeV'
p220
aS'wsig_13TeV:hggpdfsmrel_ggH_2016_SR2_13TeV'
p221
aS'wsig_13TeV:hggpdfsmrel_ttH_2016_SR2_13TeV'
p222
aS'wsig_13TeV:hggpdfsmrel_HHggTauTau_2017_SR2_13TeV'
p223
aS'wsig_13TeV:hggpdfsmrel_HHggWWdileptonic_2017_SR2_13TeV'
p224
aS'wsig_13TeV:hggpdfsmrel_HHggWWsemileptonic_2017_SR2_13TeV'
p225
aS'wsig_13TeV:hggpdfsmrel_VBFH_2017_SR2_13TeV'
p226
aS'wsig_13TeV:hggpdfsmrel_VH_2017_SR2_13TeV'
p227
aS'wsig_13TeV:hggpdfsmrel_ggH_2017_SR2_13TeV'
p228
aS'wsig_13TeV:hggpdfsmrel_ttH_2017_SR2_13TeV'
p229
aS'wsig_13TeV:hggpdfsmrel_HHggTauTau_2018_SR2_13TeV'
p230
aS'wsig_13TeV:hggpdfsmrel_HHggWWdileptonic_2018_SR2_13TeV'
p231
aS'wsig_13TeV:hggpdfsmrel_HHggWWsemileptonic_2018_SR2_13TeV'
p232
aS'wsig_13TeV:hggpdfsmrel_VBFH_2018_SR2_13TeV'
p233
aS'wsig_13TeV:hggpdfsmrel_VH_2018_SR2_13TeV'
p234
aS'wsig_13TeV:hggpdfsmrel_ggH_2018_SR2_13TeV'
p235
aS'wsig_13TeV:hggpdfsmrel_ttH_2018_SR2_13TeV'
p236
aS'multipdf:CMS_hgg_SR2_13TeV_bkgshape'
p237
aS'multipdf:roohist_data_mass_SR2'
p238
aI1000
aI1000
aI1000
aI1000
aI1000
aI1000
aI1000
aI1000
aI1000
aI1000
aI1000
aI1000
aI1000
aI1000
aI1000
aI1000
aI1000
aI1000
aI1000
aI1000
aI1000
aF1.0
aI-1
aF0.018110243908329143
aF0.003705669132160314
aF0.00522547025202208
aF0.036402314246049707
aF0.23761763262399035
aF0.04270453059711042
aF0.10304236966179398
aF0.017607268801550977
aF0.004044326485191651
aF0.007375697060015411
aF0.0382459149343802
aF0.3327063167096095
aF0.13314344025041325
aF0.10077024070750384
aF0.030724334526083485
aF0.006362112125117185
aF0.00909716230842725
aF0.05725816856038547
aF0.5047715670486641
aF0.1932652904315915
aF0.1486585172580156
ag150
ag150
aF4.105433983270698e-08
aF2.8043748134597053e-09
aF1.840863043444383e-08
aF7.00425018208297e-05
aF0.0003398219098866791
aF0.00046519442893865883
aF9.272864852925449e-05
aF4.0592560078863344e-08
aF3.117951056888486e-09
aF2.613188222261866e-08
aF0.0001687712366593549
aF0.0004298579623435447
aF0.0024650219296813835
aF0.00011390730863531695
aF1.0648695362037459e-07
aF7.331037661686061e-09
aF4.817245378811694e-08
aF0.0003364841658237949
aF0.0009266341160823734
aF0.004836966903390501
aF0.00026179043069427725
ag150
ag150
aF0.018110243908329143
aF0.003705669132160314
aF0.00522547025202208
aF0.036402314246049707
aF0.23761763262399035
aF0.04270453059711042
aF0.10304236966179398
aF0.017607268801550977
aF0.004044326485191651
aF0.007375697060015411
aF0.0382459149343802
aF0.3327063167096095
aF0.13314344025041325
aF0.10077024070750384
aF0.030724334526083485
aF0.006362112125117185
aF0.00909716230842725
aF0.05725816856038547
aF0.5047715670486641
aF0.1932652904315915
aF0.1486585172580156
ag150
ag150
aF0.018110243908329143
aF0.003705669132160314
aF0.00522547025202208
aF0.036402314246049707
aF0.23761763262399035
aF0.04270453059711042
aF0.10304236966179398
aF0.017607268801550977
aF0.004044326485191651
aF0.007375697060015411
aF0.0382459149343802
aF0.3327063167096095
aF0.13314344025041325
aF0.10077024070750384
aF0.030724334526083485
aF0.006362112125117185
aF0.00909716230842725
aF0.05725816856038547
aF0.5047715670486641
aF0.1932652904315915
aF0.1486585172580156
ag150
ag150
aF0.01807210078200511
aF0.0036974093941297558
aF0.005215401383725578
aF0.03634241518347253
aF0.23710038221173352
aF0.0426273499566556
aF0.10283378646368668
aF0.017553967584664692
aF0.004031496047298692
aF0.007354441467057392
aF0.03814159653124858
aF0.3316490097882683
aF0.1328335786392864
aF0.10051744510116745
aF0.030668351736933965
aF0.006349630146316224
aF0.009081632251088404
aF0.05715813635760596
aF0.5038346246774551
aF0.19299892767100976
aF0.14845857240608498
ag150
ag150
aF0.018110243908329143
aF0.003705669132160314
aF0.00522547025202208
aF0.036402314246049707
aF0.23761763262399035
aF0.04270453059711042
aF0.10304236966179398
aF0.017607268801550977
aF0.004044326485191651
aF0.007375697060015411
aF0.0382459149343802
aF0.3327063167096095
aF0.13314344025041325
aF0.10077024070750384
aF0.030724334526083485
aF0.006362112125117185
aF0.00909716230842725
aF0.05725816856038547
aF0.5047715670486641
aF0.1932652904315915
aF0.1486585172580156
ag150
ag150
aF0.018080055590642824
aF0.0036846235576063345
aF0.005219226895187666
aF0.03638702345463892
aF0.23735396351160756
aF0.04270453059711042
aF0.10241442464883597
aF0.017582359989722077
aF0.004023788823243715
aF0.007367690329924552
aF0.038232774872735534
aF0.33233655890059893
aF0.13314344025041325
aF0.10024525506832267
aF0.030671476678193893
aF0.006325642361818523
aF0.009085895804065224
aF0.05714332454121063
aF0.5044518014884461
aF0.19345245729321303
aF0.14799458891608608
ag150
ag150
aF0.018110243908329143
aF0.003705669132160314
aF0.00522547025202208
aF0.036402314246049707
aF0.23761763262399035
aF0.04270453059711042
aF0.10304236966179398
aF0.017607268801550977
aF0.004044326485191651
aF0.007375697060015411
aF0.0382459149343802
aF0.3327063167096095
aF0.13314344025041325
aF0.10077024070750384
aF0.030724334526083485
aF0.006362112125117185
aF0.00909716230842725
aF0.05725816856038547
aF0.5047715670486641
aF0.1932652904315915
aF0.1486585172580156
ag150
ag150
aF0.01810925268065013
aF0.0037050166719826616
aF0.005225287310857274
aF0.03640155296560545
aF0.23761211957255862
aF0.04270490406918183
aF0.10302945441312589
aF0.017606612943714062
aF0.0040437813080686415
aF0.007375477553585696
aF0.03824557214305522
aF0.33269816964317384
aF0.13314112766362204
aF0.10076073298673474
aF0.030723321847271962
aF0.006361444860697623
aF0.009096974484450853
aF0.057256801942371024
aF0.5047642661679997
aF0.1932652904315915
aF0.14864666677570113
ag150
ag150
aF0.018110243908329143
aF0.003705669132160314
aF0.00522547025202208
aF0.036402314246049707
aF0.23761763262399035
aF0.04270453059711042
aF0.10304236966179398
aF0.017607268801550977
aF0.004044326485191651
aF0.007375697060015411
aF0.0382459149343802
aF0.3327063167096095
aF0.13314344025041325
aF0.10077024070750384
aF0.030724334526083485
aF0.006362112125117185
aF0.00909716230842725
aF0.05725816856038547
aF0.5047715670486641
aF0.1932652904315915
aF0.1486585172580156
ag150
ag150
aF0.018108646846996045
aF0.0037046242575074044
aF0.0052251431508155985
aF0.036402487008328835
aF0.23760496765323302
aF0.04270188717902776
aF0.10301674732179
aF0.01760608068402156
aF0.004043332427809599
aF0.0073752317605659855
aF0.03824773629497727
aF0.3326903509025884
aF0.13314083366321586
aF0.10074957624633915
aF0.03072180881638608
aF0.0063604650846314946
aF0.0090967462131309
aF0.05725533669438285
aF0.5047564139572811
aF0.1932652904315915
aF0.1486255969658639
ag150
ag150
aF0.018110243908329143
aF0.003705669132160314
aF0.00522547025202208
aF0.036402314246049707
aF0.23761763262399035
aF0.04270453059711042
aF0.10304236966179398
aF0.017607268801550977
aF0.004044326485191651
aF0.007375697060015411
aF0.0382459149343802
aF0.3327063167096095
aF0.13314344025041325
aF0.10077024070750384
aF0.030724334526083485
aF0.006362112125117185
aF0.00909716230842725
aF0.05725816856038547
aF0.5047715670486641
aF0.1932652904315915
aF0.1486585172580156
ag150
ag150
aF0.01810578581251903
aF0.003703054418253606
aF0.0052247340902895215
aF0.03639742600172233
aF0.23759540368160292
aF0.04270396340218759
aF0.10299294326882949
aF0.017603503423896508
aF0.004041513315965245
aF0.00737452908864409
aF0.03824281428095738
aF0.3326680090709044
aF0.13312423423334252
aF0.10072185949595246
aF0.030718887643956357
aF0.006358794733904232
aF0.009096169011643115
aF0.057250161163869245
aF0.5047369691469911
aF0.1932652904315915
aF0.14859792158170504
ag150
ag150
aF0.018110243908329143
aF0.003705669132160314
aF0.00522547025202208
aF0.036402314246049707
aF0.23761763262399035
aF0.04270453059711042
aF0.10304236966179398
aF0.017607268801550977
aF0.004044326485191651
aF0.007375697060015411
aF0.0382459149343802
aF0.3327063167096095
aF0.13314344025041325
aF0.10077024070750384
aF0.030724334526083485
aF0.006362112125117185
aF0.00909716230842725
aF0.05725816856038547
aF0.5047715670486641
aF0.1932652904315915
aF0.1486585172580156
ag150
ag150
aF0.01809041484696263
aF0.0036941812369284724
aF0.005222374869787149
aF0.036396100173237314
aF0.23755206277311042
aF0.042713592818090146
aF0.10279685437673049
aF0.01759090972345752
aF0.004032407686695286
aF0.00737071285868543
aF0.03824435643313702
aF0.33255517899239634
aF0.1330521011873134
aF0.10056684110317368
aF0.03069116411097273
aF0.006342618000914992
aF0.009091072742860069
aF0.057205731107818916
aF0.5045649574797515
aF0.1932652904315915
aF0.14833376969150366
ag150
ag150
aF0.018110243908329143
aF0.003705669132160314
aF0.00522547025202208
aF0.036402314246049707
aF0.23761763262399035
aF0.04270453059711042
aF0.10304236966179398
aF0.017607268801550977
aF0.004044326485191651
aF0.007375697060015411
aF0.0382459149343802
aF0.3327063167096095
aF0.13314344025041325
aF0.10077024070750384
aF0.030724334526083485
aF0.006362112125117185
aF0.00909716230842725
aF0.05725816856038547
aF0.5047715670486641
aF0.1932652904315915
aF0.1486585172580156
ag150
ag150
aF0.018069959833357678
aF0.0036973608109706828
aF0.005214231443028159
aF0.03631280861165464
aF0.23712376406743277
aF0.042617841435445517
aF0.10283864475207813
aF0.01756013483407376
aF0.004033076816183882
aF0.00735616648657881
aF0.0381458907273293
aF0.331754205366186
aF0.13279790594564272
aF0.10051518151867149
aF0.030653759012906588
aF0.006346975165650406
aF0.009076954321761248
aF0.05711307782721317
aF0.5036000834281028
aF0.19287229617154275
aF0.1483292211483262
ag150
ag150
aF0.018106152496506232
aF0.003706007503293981
aF0.005238095830697263
aF0.03634274654961132
aF0.23769528838192192
aF0.04270453059711041
aF0.10298725821627366
aF0.0176228798594044
aF0.004047956574803997
aF0.007392119753446078
aF0.038442861697127885
aF0.33102283391700416
aF0.1254106325276193
aF0.10147156833890539
aF0.030738861224941776
aF0.006362087574577143
aF0.009081271513099558
aF0.0549742850211749
aF0.5043439238680297
aF0.19326529043159152
aF0.14884560046169149
ag150
ag150
aF0.018087949329702348
aF0.003708248832922256
aF0.005235340136089154
aF0.036080722370906614
aF0.23954578778705238
aF0.042199392231098795
aF0.10409232725531913
aF0.017591615433860862
aF0.00404059765972079
aF0.007369350817356618
aF0.0384638473161453
aF0.33368859844913407
aF0.12667397991629495
aF0.10148369224171633
aF0.030724414939706797
aF0.0063570782162077856
aF0.009078736946802855
aF0.05894847994900067
aF0.5032304975118272
aF0.19571099651169974
aF0.14840448949241986
ag150
ag150
aF0.018099338795131988
aF0.0037099396360383095
aF0.005232670258713612
aF0.03634274654961132
aF0.24191705051170678
aF0.04270453059711041
aF0.1028679781179893
aF0.01762918320517079
aF0.004043985480432787
aF0.007348059900525408
aF0.038442861697127885
aF0.33157060144658534
aF0.1345582668828912
aF0.09947285258888691
aF0.030670539460286344
aF0.006375118687111183
aF0.009087301469895679
aF0.05513616179165018
aF0.5040297525377481
aF0.19326529043159152
aF0.14787562761265394
ag150
ag150
aF0.018071853388235345
aF0.0036968966634788733
aF0.005230192968604549
aF0.03535473298868853
aF0.23866008799160499
aF0.04270453059711041
aF0.1045665956401331
aF0.017573774674386332
aF0.004034784679814855
aF0.007410799204801456
aF0.03731453751520649
aF0.33276058845237716
aF0.11626367692928344
aF0.10192545433669299
aF0.030757891063059515
aF0.006361272378546162
aF0.00909092703755174
aF0.05662711427475199
aF0.5001804805868872
aF0.19443957071728304
aF0.1476069811596238
ag150
ag150
aF0.018139396910461077
aF0.0037158275975732766
aF0.005261505613068713
aF0.03219723793384291
aF0.2386061379935173
aF0.027179318177113998
aF0.10384687637194844
aF0.017592880855573666
aF0.004047162425186032
aF0.007393134113392488
aF0.03357995345242731
aF0.3328729256837996
aF0.1460154206060745
aF0.10084004941391872
aF0.03065232240831548
aF0.006331274384505135
aF0.009148107792349943
aF0.06306029592554104
aF0.5062732392223472
aF0.174739207879519
aF0.15024850393626796
ag150
ag150
aF0.01808967662598069
aF0.0037054125010557103
aF0.005236867070185761
aF0.027307963719169125
aF0.23806387993866693
aF0.046173053109596476
aF0.10079538929973753
aF0.01766250586328991
aF0.004041493082604592
aF0.007377118607688193
aF0.02896421952490869
aF0.3323753342876817
aF0.124965484929387
aF0.09749037605302485
aF0.03077976724354013
aF0.0063817174276851
aF0.009127484904310566
aF0.05931178226924182
aF0.5036252122473374
aF0.17082032524513893
aF0.1468460979081527
ag150
ag150
aF0.018127761559521505
aF0.0037084703251712473
aF0.005228206255754492
aF0.031822269023330206
aF0.24140503001710129
aF0.04256450031255931
aF0.10595002321336018
aF0.017541093340607668
aF0.004030468163805605
aF0.007358607296609936
aF0.03378770301800836
aF0.3358090006349503
aF0.14974765081930724
aF0.10010135031776977
aF0.030645440867671157
aF0.0063627230933769536
aF0.009008050647301024
aF0.062302076888005285
aF0.5053627120343666
aF0.2008247804208799
aF0.14427357218927309
ag150
ag150
aF0.01808239428646815
aF0.0037224191025478233
aF0.005278073024433039
aF0.030915285849111716
aF0.2447337174508505
aF0.04288442612084717
aF0.10304112731992858
aF0.017654745728077806
aF0.004059089267892958
aF0.007411086513787733
aF0.032089520170071585
aF0.33267969203584513
aF0.13139689986187636
aF0.09915867220973387
aF0.03080230286596072
aF0.00636072753580908
aF0.0091171533027442
aF0.06169395661656449
aF0.5058002786405035
aF0.18220145730229328
aF0.15487631788816203
ag150
ag150
aF0.018100616970741834
aF0.0037135497380346902
aF0.005291648908144342
aF0.03737861650913488
aF0.2433921552828392
aF0.02069364651498206
aF0.106100779362067
aF0.01765826091533421
aF0.0040403320615136845
aF0.007375819541347767
aF0.03884722324675552
aF0.33830834998416953
aF0.1159673654108351
aF0.10223621272634154
aF0.030705607464940093
aF0.006334092003542873
aF0.009013998676105037
aF0.056778932938513604
aF0.510758712774923
aF0.2074911712259603
aF0.15128239955808875
ag150
ag150
aF0.018097630772962527
aF0.0037105609241564635
aF0.00510617685878525
aF0.028728758373700716
aF0.24434718611077946
aF0.038218696023003575
aF0.10874299282683622
aF0.017564068928316714
aF0.004043230417889508
aF0.00730754899204701
aF0.0307486851923676
aF0.33442204051332763
aF0.13445725656189467
aF0.10237595214314538
aF0.03072427050639039
aF0.006346460911751195
aF0.009039439570631783
aF0.05762334332181127
aF0.4978872100653829
aF0.1718312583458645
aF0.15291383402371314
ag150
ag150
aF0.018113323453432646
aF0.0037064626407629577
aF0.005225470252022088
aF0.036402314246049686
aF0.23761763262399
aF0.04270453059711041
aF0.10304236966179402
aF0.01760726880155096
aF0.004045003106838581
aF0.007375697060015398
aF0.0382459149343802
aF0.33270631670960965
aF0.13314344025041328
aF0.10077024070750394
aF0.030724330027532186
aF0.006362112125117184
aF0.009097162308427248
aF0.057258168560385486
aF0.5047715670486642
aF0.19326529043159152
aF0.14865851725801546
ag150
ag150
aF0.01810608377154232
aF0.0037050249555840684
aF0.005225470252022088
aF0.036402314246049686
aF0.23761763262399
aF0.04270453059711041
aF0.10304236966179402
aF0.01760726880155096
aF0.004044478416702891
aF0.007375697060015398
aF0.0382459149343802
aF0.33270631670960965
aF0.13314344025041328
aF0.10077024070750394
aF0.030724474484403942
aF0.006359690577362642
aF0.009097162308427248
aF0.057258168560385486
aF0.5039962850396373
aF0.19326529043159152
aF0.1482652919144394
ag150
ag150
aF0.018115596670756493
aF0.003703288929213712
aF0.005242328698275583
aF0.036402314246049686
aF0.23761763262399
aF0.04270453059711041
aF0.10372121155551797
aF0.017636687381544138
aF0.004046660455103935
aF0.00737821984817045
aF0.0382459149343802
aF0.3337338500289264
aF0.13314344025041328
aF0.10077024070750394
aF0.03074276890678466
aF0.006369885243550524
aF0.009096411513027319
aF0.057258168560385486
aF0.5047715670486642
aF0.19326529043159152
aF0.14865851725801546
ag150
ag150
aF0.01808340699992797
aF0.003699875933996924
aF0.005214706423847696
aF0.036402314246049686
aF0.23943648368859766
aF0.04270453059711041
aF0.10405453292323649
aF0.017595106204333768
aF0.00403372951715186
aF0.0073523980651832395
aF0.0382459149343802
aF0.33197484586640813
aF0.13314344025041328
aF0.10037696242033896
aF0.030649626886875277
aF0.006349738487637234
aF0.009068117903636635
aF0.057258168560385486
aF0.5034616677076361
aF0.19326529043159152
aF0.14814435415444013
ag150
ag150
aF0.018090919591470408
aF0.003703901368478829
aF0.0052215212216267255
aF0.0362243518550639
aF0.23798816101180337
aF0.04300064967526533
aF0.10381796287960414
aF0.017598411335279875
aF0.004041051110800418
aF0.007370752517858883
aF0.037954721152992685
aF0.3321027381982939
aF0.13391691724211774
aF0.09951467129796938
aF0.030729155792230123
aF0.00636202653170144
aF0.009082718404501077
aF0.05712020244086714
aF0.5038673090044964
aF0.19377004572613424
aF0.14777519295440786
ag150
ag150
aF0.01812746364280736
aF0.0037087017913688277
aF0.005231528933033118
aF0.03656810760490266
aF0.23706386878273475
aF0.04220007887382421
aF0.10183212186960437
aF0.01762138377798443
aF0.004048005057677944
aF0.007378462655538781
aF0.03825817654040417
aF0.3328657773730634
aF0.13218803214752647
aF0.1020260415180631
aF0.030734657034523095
aF0.006366008953491821
aF0.009109840863218744
aF0.057850429601916636
aF0.5060696590774815
aF0.19382733752286907
aF0.14965189039119967
ag150
ag150
aF0.01807575447280975
aF0.003692592804056454
aF0.005239262433540278
aF0.03625635021833424
aF0.24141880845502675
aF0.041979827676474686
aF0.10657892261318322
aF0.017609460920975303
aF0.004044101772643406
aF0.007376023785417538
aF0.03816741084238955
aF0.33271536994767525
aF0.1334867625932442
aF0.10065729961391245
aF0.03072096170394191
aF0.00636210392482605
aF0.009097571513806139
aF0.057180693616696504
aF0.5047708189648044
aF0.19367212343784201
aF0.14864324451595318
ag150
ag150
aF0.018144611483143492
aF0.0037188781434018218
aF0.005212309306327514
aF0.036532546388343495
aF0.23374802910725823
aF0.0435043207335919
aF0.09945144019204709
aF0.017604358792682906
aF0.004044665060228604
aF0.007375036213451776
aF0.03839264851576989
aF0.33264833677174027
aF0.1327894358512002
aF0.10086656246198922
aF0.03072741764814078
aF0.006361988725330182
aF0.0090964683630891
aF0.057312957344714144
aF0.5047487013453301
aF0.19264500676370816
aF0.1486557067928648
ag150
ag150
aF0.018071377691319442
aF0.0036922826614029496
aF0.005238244243320863
aF0.03614155732858711
aF0.24123253320421717
aF0.04213092133564388
aF0.10639209143917208
aF0.01760143630658053
aF0.0040426364188818
aF0.00737532331765881
aF0.03804235245729703
aF0.33282140321130843
aF0.1334919897019519
aF0.10074494736489321
aF0.030709115078221202
aF0.0063596977323905225
aF0.009097053901667672
aF0.05716844345181088
aF0.5044067866891567
aF0.19339745537044684
aF0.1485295648537902
ag150
ag150
aF0.018150058996833463
aF0.003719454727612319
aF0.00521291760629712
aF0.0366738029658512
aF0.23392739291985676
aF0.04331999137842264
aF0.0996363302713667
aF0.017612257483457034
aF0.004046215989700972
aF0.007376069968737764
aF0.03847074032379105
aF0.33253955254203016
aF0.13279170554327893
aF0.10075782258568092
aF0.03074034735770027
aF0.006364652085818328
aF0.00909697469852044
aF0.05735377720353032
aF0.5051492899607535
aF0.1930689235092133
aF0.14877316520808323
ag150
ag150
aF0.01811212748852051
aF0.0037063652781103235
aF0.005225709344428507
aF0.036304786371055116
aF0.23740497646009862
aF0.04268083371172167
aF0.10291965211403933
aF0.017607560599807833
aF0.004043969644653741
aF0.007375434290496182
aF0.038194930430648234
aF0.33267837886988955
aF0.1327626305673124
aF0.1014628072343755
aF0.03072377213518034
aF0.006361543896431861
aF0.009097644484775626
aF0.05725717894464664
aF0.5047930289059227
aF0.19325753795103132
aF0.15007836222812715
ag150
ag150
aF0.018108331622643085
aF0.003704971250916835
aF0.005225263269717303
aF0.03649657526220485
aF0.23782973899503576
aF0.042728134187572035
aF0.10329576171294774
aF0.01760697763606333
aF0.004044685687043842
aF0.0073759487835226255
aF0.03829713288354199
aF0.332731922068268
aF0.13353644002142767
aF0.10006453734401345
aF0.030724918681125635
aF0.006362682489078642
aF0.009096671952430111
aF0.057259192356501204
aF0.5047507502869824
aF0.19327312511393718
aF0.1472474631993655
ag150
ag150
aF0.018108362666251498
aF0.003705293734378668
aF0.005225524693880295
aF0.036401517486583324
aF0.23760488180587983
aF0.042712115303884184
aF0.10344171460757655
aF0.017607036417853904
aF0.004044283186532373
aF0.007375483107206694
aF0.03822792770186219
aF0.33269259474984925
aF0.13307029155240452
aF0.10062868205910064
aF0.030724173730586685
aF0.006361860062877032
aF0.009097126761802342
aF0.057258211485131265
aF0.504717579645585
aF0.19326306698463816
aF0.1487669048363893
ag150
ag150
aF0.01811209689103802
aF0.0037060272593649056
aF0.005225434688905548
aF0.036404807872119874
aF0.23763867852907775
aF0.0426975547330978
aF0.1027113112606666
aF0.017607494200223225
aF0.004044375856799389
aF0.0073759320071900385
aF0.03826405199155922
aF0.3327202690199927
aF0.13322653395996478
aF0.10090756855066677
aF0.030724547237352285
aF0.006362365807228251
aF0.00909720203169374
aF0.057258164876395685
aF0.5048260839261512
aF0.19326780703682384
aF0.14854026032287218
ag150
ag150
aF0.018143336492931712
aF0.003714326568126142
aF0.005243709960785631
aF0.03522628620983016
aF0.2301144486856919
aF0.042332820572611875
aF0.09880221034235322
aF0.017586046858931004
aF0.004038326354652206
aF0.007374398986563953
aF0.03816709388250369
aF0.33229805363636566
aF0.1309104565011553
aF0.10117754108116842
aF0.0306978409527071
aF0.006350506007805384
aF0.009100063502765782
aF0.058165309026210914
aF0.5044178776494272
aF0.1967603615136517
aF0.14973643548917717
ag150
ag150
aF0.0180796097327271
aF0.003697595903809599
aF0.005210727196942847
aF0.037505209571500685
aF0.24478395645096127
aF0.04286067499817356
aF0.10667294798293421
aF0.017650824395124283
aF0.004055219806343489
aF0.007379943868044277
aF0.038343053699865196
aF0.3336684559005149
aF0.1378532058540701
aF0.0999584924663338
aF0.03079107881236797
aF0.006384121453408585
aF0.009069566103426312
aF0.05531837595573048
aF0.5044509919165553
aF0.18708535188257286
aF0.1453196711843565
ag150
ag150
aF0.018135848172560424
aF0.0037128754252778095
aF0.005239301685091907
aF0.035492698435561125
aF0.23142521395289298
aF0.04273493916487235
aF0.09982369713598792
aF0.017590202286405725
aF0.004039551198853198
aF0.007375053199194978
aF0.03815248731769578
aF0.33237242789865473
aF0.13099283129038927
aF0.10118268915925155
aF0.03069882888387433
aF0.006351046673794103
aF0.0090939399692407
aF0.05799253783116031
aF0.5045528955426005
aF0.19638961684537856
aF0.14951325371416754
ag150
ag150
aF0.018087481200981147
aF0.003699909392680029
aF0.005213939420399829
aF0.03719598364841527
aF0.24326791421075156
aF0.0424559398099005
aF0.10559711223940023
aF0.017633943928873297
aF0.004051310898879021
aF0.0073778271460116064
aF0.038359702812794653
aF0.3333509615296039
aF0.13645916585702877
aF0.10011357765486356
aF0.03076971076720597
aF0.006378891286749276
aF0.009093001364964475
aF0.056062744105679234
aF0.5046969275786573
aF0.18883308732296272
aF0.14685721425922463
ag150
ag150
atp239
ba(lp240
g15
(g16
(dp241
g18
g19
(g20
(I0
tp242
g22
tp243
Rp244
(I1
(I56
tp245
g29
I00
(lp246
g33
ag34
ag35
ag36
ag37
ag38
ag39
ag40
ag41
ag42
ag43
ag44
ag45
ag46
ag47
ag48
ag49
ag50
ag51
ag52
ag53
ag54
ag55
ag56
ag57
ag58
ag59
ag60
ag61
ag62
ag63
ag64
ag65
ag66
ag67
ag68
ag69
ag70
ag71
ag72
ag73
ag74
ag75
ag76
ag77
ag78
ag79
ag80
ag81
ag82
ag83
ag84
ag85
ag86
ag87
ag88
atp247
bsg90
Nstp248
Rp249
a(dp250
S'0.14.1'
p251
(dp252
S'axes'
p253
g14
sS'blocks'
p254
(lp255
(dp256
S'mgr_locs'
p257
c__builtin__
slice
p258
(I0
I56
I1
tp259
Rp260
sS'values'
p261
g111
sasstp262
bsb.