ccopy_reg
_reconstructor
p0
(cpandas.core.frame
DataFrame
p1
c__builtin__
object
p2
Ntp3
Rp4
(dp5
S'_metadata'
p6
(lp7
sS'_typ'
p8
S'dataframe'
p9
sS'_data'
p10
g0
(cpandas.core.internals
BlockManager
p11
g2
Ntp12
Rp13
((lp14
cpandas.core.indexes.base
_new_Index
p15
(cpandas.core.indexes.base
Index
p16
(dp17
S'data'
p18
cnumpy.core.multiarray
_reconstruct
p19
(cnumpy
ndarray
p20
(I0
tp21
S'b'
p22
tp23
Rp24
(I1
(I64
tp25
cnumpy
dtype
p26
(S'O8'
p27
I0
I1
tp28
Rp29
(I3
S'|'
p30
NNNI-1
I-1
I63
tp31
bI00
(lp32
S'year'
p33
aS'type'
p34
aS'procOriginal'
p35
aS'proc'
p36
aS'proc_s0'
p37
aS'cat'
p38
aS'inputWSFile'
p39
aS'nominalDataName'
p40
aS'modelWSFile'
p41
aS'model'
p42
aS'rate'
p43
aS'nominal_yield'
p44
aS'sumw2'
p45
aS'nominal_yield_COWCorr'
p46
aS'weight_electron_veto_sf_Diphoton_Photon_up_yield'
p47
aS'weight_electron_veto_sf_Diphoton_Photon_down_yield'
p48
aS'weight_electron_id_sf_SelectedElectron_up_yield'
p49
aS'weight_electron_id_sf_SelectedElectron_down_yield'
p50
aS'weight_muon_id_sfSTAT_SelectedMuon_up_yield'
p51
aS'weight_muon_id_sfSTAT_SelectedMuon_down_yield'
p52
aS'weight_muon_id_sfSYS_SelectedMuon_up_yield'
p53
aS'weight_muon_id_sfSYS_SelectedMuon_down_yield'
p54
aS'weight_muon_iso_sfSTAT_SelectedMuon_up_yield'
p55
aS'weight_muon_iso_sfSTAT_SelectedMuon_down_yield'
p56
aS'weight_muon_iso_sfSYS_SelectedMuon_up_yield'
p57
aS'weight_muon_iso_sfSYS_SelectedMuon_down_yield'
p58
aS'weight_trigger_sf_up_yield'
p59
aS'weight_trigger_sf_down_yield'
p60
aS'weight_puWeight_up_yield'
p61
aS'weight_puWeight_down_yield'
p62
aS'JER_up_yield'
p63
aS'JER_down_yield'
p64
aS'JES_up_yield'
p65
aS'JES_down_yield'
p66
aS'MET_JER_up_yield'
p67
aS'MET_JER_down_yield'
p68
aS'MET_JES_up_yield'
p69
aS'MET_JES_down_yield'
p70
aS'MET_Unclustered_up_yield'
p71
aS'MET_Unclustered_down_yield'
p72
aS'Muon_pt_up_yield'
p73
aS'Muon_pt_down_yield'
p74
aS'Tau_pt_up_yield'
p75
aS'Tau_pt_down_yield'
p76
aS'weight_btag_deepjet_sf_SelectedJet_jes_up_yield'
p77
aS'weight_btag_deepjet_sf_SelectedJet_jes_down_yield'
p78
aS'weight_btag_deepjet_sf_SelectedJet_lfstats1_up_yield'
p79
aS'weight_btag_deepjet_sf_SelectedJet_lfstats1_down_yield'
p80
aS'weight_btag_deepjet_sf_SelectedJet_lfstats2_up_yield'
p81
aS'weight_btag_deepjet_sf_SelectedJet_lfstats2_down_yield'
p82
aS'weight_btag_deepjet_sf_SelectedJet_hfstats1_up_yield'
p83
aS'weight_btag_deepjet_sf_SelectedJet_hfstats1_down_yield'
p84
aS'weight_btag_deepjet_sf_SelectedJet_hfstats2_up_yield'
p85
aS'weight_btag_deepjet_sf_SelectedJet_hfstats2_down_yield'
p86
aS'weight_btag_deepjet_sf_SelectedJet_cferr1_up_yield'
p87
aS'weight_btag_deepjet_sf_SelectedJet_cferr1_down_yield'
p88
aS'weight_btag_deepjet_sf_SelectedJet_cferr2_up_yield'
p89
aS'weight_btag_deepjet_sf_SelectedJet_cferr2_down_yield'
p90
aS'weight_tau_idDeepTauVSe_sf_AnalysisTau_up_yield'
p91
aS'weight_tau_idDeepTauVSe_sf_AnalysisTau_down_yield'
p92
aS'weight_tau_idDeepTauVSmu_sf_AnalysisTau_up_yield'
p93
aS'weight_tau_idDeepTauVSmu_sf_AnalysisTau_down_yield'
p94
aS'weight_tau_idDeepTauVSjet_sf_AnalysisTau_up_yield'
p95
aS'weight_tau_idDeepTauVSjet_sf_AnalysisTau_down_yield'
p96
atp97
bsS'name'
p98
Nstp99
Rp100
ag15
(cpandas.core.indexes.numeric
Int64Index
p101
(dp102
g18
g19
(g20
(I0
tp103
g22
tp104
Rp105
(I1
(I23
tp106
g26
(S'i8'
p107
I0
I1
tp108
Rp109
(I3
S'<'
p110
NNNI-1
I-1
I0
tp111
bI00
S'\x00\x00\x00\x00\x00\x00\x00\x00\x01\x00\x00\x00\x00\x00\x00\x00\x02\x00\x00\x00\x00\x00\x00\x00\x03\x00\x00\x00\x00\x00\x00\x00\x04\x00\x00\x00\x00\x00\x00\x00\x05\x00\x00\x00\x00\x00\x00\x00\x06\x00\x00\x00\x00\x00\x00\x00\x07\x00\x00\x00\x00\x00\x00\x00\x08\x00\x00\x00\x00\x00\x00\x00\t\x00\x00\x00\x00\x00\x00\x00\n\x00\x00\x00\x00\x00\x00\x00\x0b\x00\x00\x00\x00\x00\x00\x00\x0c\x00\x00\x00\x00\x00\x00\x00\r\x00\x00\x00\x00\x00\x00\x00\x0e\x00\x00\x00\x00\x00\x00\x00\x0f\x00\x00\x00\x00\x00\x00\x00\x10\x00\x00\x00\x00\x00\x00\x00\x11\x00\x00\x00\x00\x00\x00\x00\x12\x00\x00\x00\x00\x00\x00\x00\x13\x00\x00\x00\x00\x00\x00\x00\x14\x00\x00\x00\x00\x00\x00\x00\x15\x00\x00\x00\x00\x00\x00\x00\x16\x00\x00\x00\x00\x00\x00\x00'
p112
tp113
bsg98
Nstp114
Rp115
a(lp116
g19
(g20
(I0
tp117
g22
tp118
Rp119
(I1
(I64
I23
tp120
g29
I00
(lp121
S'2016'
p122
ag122
ag122
ag122
ag122
ag122
ag122
aS'2017'
p123
ag123
ag123
ag123
ag123
ag123
ag123
aS'2018'
p124
ag124
ag124
ag124
ag124
ag124
ag124
aS'merged'
p125
ag125
aS'sig'
p126
ag126
ag126
ag126
ag126
ag126
ag126
ag126
ag126
ag126
ag126
ag126
ag126
ag126
ag126
ag126
ag126
ag126
ag126
ag126
ag126
aS'bkg'
p127
ag18
aS'HHggTauTau'
p128
aS'HHggWWdileptonic'
p129
aS'HHggWWsemileptonic'
p130
aS'VBFH'
p131
aS'VH'
p132
aS'ggH'
p133
aS'ttH'
p134
ag128
ag129
ag130
ag131
ag132
ag133
ag134
ag128
ag129
ag130
ag131
ag132
ag133
ag134
aS'bkg_mass'
p135
aS'data_obs'
p136
aS'HHggTauTau_2016_hgg'
p137
aS'HHggWWdileptonic_2016_hgg'
p138
aS'HHggWWsemileptonic_2016_hgg'
p139
aS'VBFH_2016_hgg'
p140
aS'VH_2016_hgg'
p141
aS'ggH_2016_hgg'
p142
aS'ttH_2016_hgg'
p143
aS'HHggTauTau_2017_hgg'
p144
aS'HHggWWdileptonic_2017_hgg'
p145
aS'HHggWWsemileptonic_2017_hgg'
p146
aS'VBFH_2017_hgg'
p147
aS'VH_2017_hgg'
p148
aS'ggH_2017_hgg'
p149
aS'ttH_2017_hgg'
p150
aS'HHggTauTau_2018_hgg'
p151
aS'HHggWWdileptonic_2018_hgg'
p152
aS'HHggWWsemileptonic_2018_hgg'
p153
aS'VBFH_2018_hgg'
p154
aS'VH_2018_hgg'
p155
aS'ggH_2018_hgg'
p156
aS'ttH_2018_hgg'
p157
ag135
ag136
ag128
ag129
ag130
ag131
ag132
ag133
ag134
ag128
ag129
ag130
ag131
ag132
ag133
ag134
ag128
ag129
ag130
ag131
ag132
ag133
ag134
aS'-'
p158
ag158
aS'SR1'
p159
ag159
ag159
ag159
ag159
ag159
ag159
ag159
ag159
ag159
ag159
ag159
ag159
ag159
ag159
ag159
ag159
ag159
ag159
ag159
ag159
ag159
ag159
aS'/home/users/fsetti/ic_flashgg/CMSSW_10_2_13/src/flashggFinalFit/files_systs/11May2022//ws_signal_2016/output_HHggTauTau_M125_13TeV_pythia8_HHggTauTau.root'
p160
aS'/home/users/fsetti/ic_flashgg/CMSSW_10_2_13/src/flashggFinalFit/files_systs/11May2022//ws_signal_2016/output_HHggWWdileptonic_M125_13TeV_pythia8_HHggWWdileptonic.root'
p161
aS'/home/users/fsetti/ic_flashgg/CMSSW_10_2_13/src/flashggFinalFit/files_systs/11May2022//ws_signal_2016/output_HHggWWsemileptonic_M125_13TeV_pythia8_HHggWWsemileptonic.root'
p162
aS'/home/users/fsetti/ic_flashgg/CMSSW_10_2_13/src/flashggFinalFit/files_systs/11May2022//ws_signal_2016/output_VBFH_M125_13TeV_pythia8_VBFH.root'
p163
aS'/home/users/fsetti/ic_flashgg/CMSSW_10_2_13/src/flashggFinalFit/files_systs/11May2022//ws_signal_2016/output_VH_M125_13TeV_pythia8_VH.root'
p164
aS'/home/users/fsetti/ic_flashgg/CMSSW_10_2_13/src/flashggFinalFit/files_systs/11May2022//ws_signal_2016/output_ggH_M125_13TeV_pythia8_ggH.root'
p165
aS'/home/users/fsetti/ic_flashgg/CMSSW_10_2_13/src/flashggFinalFit/files_systs/11May2022//ws_signal_2016/output_ttH_M125_13TeV_pythia8_ttH.root'
p166
aS'/home/users/fsetti/ic_flashgg/CMSSW_10_2_13/src/flashggFinalFit/files_systs/11May2022//ws_signal_2017/output_HHggTauTau_M125_13TeV_pythia8_HHggTauTau.root'
p167
aS'/home/users/fsetti/ic_flashgg/CMSSW_10_2_13/src/flashggFinalFit/files_systs/11May2022//ws_signal_2017/output_HHggWWdileptonic_M125_13TeV_pythia8_HHggWWdileptonic.root'
p168
aS'/home/users/fsetti/ic_flashgg/CMSSW_10_2_13/src/flashggFinalFit/files_systs/11May2022//ws_signal_2017/output_HHggWWsemileptonic_M125_13TeV_pythia8_HHggWWsemileptonic.root'
p169
aS'/home/users/fsetti/ic_flashgg/CMSSW_10_2_13/src/flashggFinalFit/files_systs/11May2022//ws_signal_2017/output_VBFH_M125_13TeV_pythia8_VBFH.root'
p170
aS'/home/users/fsetti/ic_flashgg/CMSSW_10_2_13/src/flashggFinalFit/files_systs/11May2022//ws_signal_2017/output_VH_M125_13TeV_pythia8_VH.root'
p171
aS'/home/users/fsetti/ic_flashgg/CMSSW_10_2_13/src/flashggFinalFit/files_systs/11May2022//ws_signal_2017/output_ggH_M125_13TeV_pythia8_ggH.root'
p172
aS'/home/users/fsetti/ic_flashgg/CMSSW_10_2_13/src/flashggFinalFit/files_systs/11May2022//ws_signal_2017/output_ttH_M125_13TeV_pythia8_ttH.root'
p173
aS'/home/users/fsetti/ic_flashgg/CMSSW_10_2_13/src/flashggFinalFit/files_systs/11May2022//ws_signal_2018/output_HHggTauTau_M125_13TeV_pythia8_HHggTauTau.root'
p174
aS'/home/users/fsetti/ic_flashgg/CMSSW_10_2_13/src/flashggFinalFit/files_systs/11May2022//ws_signal_2018/output_HHggWWdileptonic_M125_13TeV_pythia8_HHggWWdileptonic.root'
p175
aS'/home/users/fsetti/ic_flashgg/CMSSW_10_2_13/src/flashggFinalFit/files_systs/11May2022//ws_signal_2018/output_HHggWWsemileptonic_M125_13TeV_pythia8_HHggWWsemileptonic.root'
p176
aS'/home/users/fsetti/ic_flashgg/CMSSW_10_2_13/src/flashggFinalFit/files_systs/11May2022//ws_signal_2018/output_VBFH_M125_13TeV_pythia8_VBFH.root'
p177
aS'/home/users/fsetti/ic_flashgg/CMSSW_10_2_13/src/flashggFinalFit/files_systs/11May2022//ws_signal_2018/output_VH_M125_13TeV_pythia8_VH.root'
p178
aS'/home/users/fsetti/ic_flashgg/CMSSW_10_2_13/src/flashggFinalFit/files_systs/11May2022//ws_signal_2018/output_ggH_M125_13TeV_pythia8_ggH.root'
p179
aS'/home/users/fsetti/ic_flashgg/CMSSW_10_2_13/src/flashggFinalFit/files_systs/11May2022//ws_signal_2018/output_ttH_M125_13TeV_pythia8_ttH.root'
p180
ag158
ag158
aS'HHggTauTau_125_13TeV_SR1'
p181
aS'HHggWWdileptonic_125_13TeV_SR1'
p182
aS'HHggWWsemileptonic_125_13TeV_SR1'
p183
aS'VBFH_125_13TeV_SR1'
p184
aS'VH_125_13TeV_SR1'
p185
aS'ggH_125_13TeV_SR1'
p186
aS'ttH_125_13TeV_SR1'
p187
aS'HHggTauTau_125_13TeV_SR1'
p188
aS'HHggWWdileptonic_125_13TeV_SR1'
p189
aS'HHggWWsemileptonic_125_13TeV_SR1'
p190
aS'VBFH_125_13TeV_SR1'
p191
aS'VH_125_13TeV_SR1'
p192
aS'ggH_125_13TeV_SR1'
p193
aS'ttH_125_13TeV_SR1'
p194
aS'HHggTauTau_125_13TeV_SR1'
p195
aS'HHggWWdileptonic_125_13TeV_SR1'
p196
aS'HHggWWsemileptonic_125_13TeV_SR1'
p197
aS'VBFH_125_13TeV_SR1'
p198
aS'VH_125_13TeV_SR1'
p199
aS'ggH_125_13TeV_SR1'
p200
aS'ttH_125_13TeV_SR1'
p201
ag158
ag158
aS'./Models/signal/CMS-HGG_sigfit_packaged_SR1.root'
p202
aS'./Models/signal/CMS-HGG_sigfit_packaged_SR1.root'
p203
aS'./Models/signal/CMS-HGG_sigfit_packaged_SR1.root'
p204
aS'./Models/signal/CMS-HGG_sigfit_packaged_SR1.root'
p205
aS'./Models/signal/CMS-HGG_sigfit_packaged_SR1.root'
p206
aS'./Models/signal/CMS-HGG_sigfit_packaged_SR1.root'
p207
aS'./Models/signal/CMS-HGG_sigfit_packaged_SR1.root'
p208
aS'./Models/signal/CMS-HGG_sigfit_packaged_SR1.root'
p209
aS'./Models/signal/CMS-HGG_sigfit_packaged_SR1.root'
p210
aS'./Models/signal/CMS-HGG_sigfit_packaged_SR1.root'
p211
aS'./Models/signal/CMS-HGG_sigfit_packaged_SR1.root'
p212
aS'./Models/signal/CMS-HGG_sigfit_packaged_SR1.root'
p213
aS'./Models/signal/CMS-HGG_sigfit_packaged_SR1.root'
p214
aS'./Models/signal/CMS-HGG_sigfit_packaged_SR1.root'
p215
aS'./Models/signal/CMS-HGG_sigfit_packaged_SR1.root'
p216
aS'./Models/signal/CMS-HGG_sigfit_packaged_SR1.root'
p217
aS'./Models/signal/CMS-HGG_sigfit_packaged_SR1.root'
p218
aS'./Models/signal/CMS-HGG_sigfit_packaged_SR1.root'
p219
aS'./Models/signal/CMS-HGG_sigfit_packaged_SR1.root'
p220
aS'./Models/signal/CMS-HGG_sigfit_packaged_SR1.root'
p221
aS'./Models/signal/CMS-HGG_sigfit_packaged_SR1.root'
p222
aS'./Models/background/CMS-HGG_multipdf_SR1.root'
p223
ag223
aS'wsig_13TeV:hggpdfsmrel_HHggTauTau_2016_SR1_13TeV'
p224
aS'wsig_13TeV:hggpdfsmrel_HHggWWdileptonic_2016_SR1_13TeV'
p225
aS'wsig_13TeV:hggpdfsmrel_HHggWWsemileptonic_2016_SR1_13TeV'
p226
aS'wsig_13TeV:hggpdfsmrel_VBFH_2016_SR1_13TeV'
p227
aS'wsig_13TeV:hggpdfsmrel_VH_2016_SR1_13TeV'
p228
aS'wsig_13TeV:hggpdfsmrel_ggH_2016_SR1_13TeV'
p229
aS'wsig_13TeV:hggpdfsmrel_ttH_2016_SR1_13TeV'
p230
aS'wsig_13TeV:hggpdfsmrel_HHggTauTau_2017_SR1_13TeV'
p231
aS'wsig_13TeV:hggpdfsmrel_HHggWWdileptonic_2017_SR1_13TeV'
p232
aS'wsig_13TeV:hggpdfsmrel_HHggWWsemileptonic_2017_SR1_13TeV'
p233
aS'wsig_13TeV:hggpdfsmrel_VBFH_2017_SR1_13TeV'
p234
aS'wsig_13TeV:hggpdfsmrel_VH_2017_SR1_13TeV'
p235
aS'wsig_13TeV:hggpdfsmrel_ggH_2017_SR1_13TeV'
p236
aS'wsig_13TeV:hggpdfsmrel_ttH_2017_SR1_13TeV'
p237
aS'wsig_13TeV:hggpdfsmrel_HHggTauTau_2018_SR1_13TeV'
p238
aS'wsig_13TeV:hggpdfsmrel_HHggWWdileptonic_2018_SR1_13TeV'
p239
aS'wsig_13TeV:hggpdfsmrel_HHggWWsemileptonic_2018_SR1_13TeV'
p240
aS'wsig_13TeV:hggpdfsmrel_VBFH_2018_SR1_13TeV'
p241
aS'wsig_13TeV:hggpdfsmrel_VH_2018_SR1_13TeV'
p242
aS'wsig_13TeV:hggpdfsmrel_ggH_2018_SR1_13TeV'
p243
aS'wsig_13TeV:hggpdfsmrel_ttH_2018_SR1_13TeV'
p244
aS'multipdf:CMS_hgg_SR1_13TeV_bkgshape'
p245
aS'multipdf:roohist_data_mass_SR1'
p246
aI1000
aI1000
aI1000
aI1000
aI1000
aI1000
aI1000
aI1000
aI1000
aI1000
aI1000
aI1000
aI1000
aI1000
aI1000
aI1000
aI1000
aI1000
aI1000
aI1000
aI1000
aF1.0
aI-1
aF0.03750571969788343
aF0.013721885528669316
aF0.005224391081850326
aF0.016234532638115164
aF0.3066657998410558
aF0.028295718534211815
aF0.0610095370803813
aF0.04521915067262156
aF0.015887489064129703
aF0.009427522196220638
aF0.016864449454748392
aF0.3898794156340403
aF0.03699017196342569
aF0.060661997301043935
aF0.06608104966130428
aF0.022912701890283712
aF0.009129741246424935
aF0.010826428321311636
aF0.554480817442055
aF0.0034581090004823754
aF0.1056188195227289
ag158
ag158
aF7.229470872498609e-08
aF1.098091594179387e-08
aF1.8729638418584882e-08
aF2.6522785160617368e-05
aF0.00041789504332506424
aF0.00017268144803471967
aF5.4023672152267744e-05
aF9.912642323929152e-08
aF1.3129703000744941e-08
aF3.594752892578451e-08
aF5.9563466766471176e-05
aF0.00047036968680121
aF0.0006337388998046399
aF6.106631881302576e-05
aF2.197093808538624e-07
aF2.815934693860068e-08
aF5.041146042122819e-08
aF8.637543828239619e-05
aF0.0010154676368596348
aF0.0014909906890178731
aF0.000142596413943451
ag158
ag158
aF0.03750571969788343
aF0.013721885528669316
aF0.005224391081850326
aF0.016234532638115164
aF0.3066657998410558
aF0.028295718534211815
aF0.0610095370803813
aF0.04521915067262156
aF0.015887489064129703
aF0.009427522196220638
aF0.016864449454748392
aF0.3898794156340403
aF0.03699017196342569
aF0.060661997301043935
aF0.06608104966130428
aF0.022912701890283712
aF0.009129741246424935
aF0.010826428321311636
aF0.554480817442055
aF0.0034581090004823754
aF0.1056188195227289
ag158
ag158
aF0.037576615553056004
aF0.013748207380289165
aF0.005233913091028063
aF0.016257162869337927
aF0.3072545728153137
aF0.028363620254835742
aF0.061114680726865704
aF0.04534062526659942
aF0.015930820216837185
aF0.009452866994986115
aF0.01690010208724568
aF0.3911029300428552
aF0.03708011930386414
aF0.06082537326198476
aF0.0661886942741968
aF0.022950552887683426
aF0.00914364990651198
aF0.010844684752075093
aF0.5554366052925179
aF0.003459529212919194
aF0.10577365219070388
ag158
ag158
aF0.03743489479590543
aF0.013695590971881971
aF0.005214878434354051
aF0.016211911108359504
aF0.3060776462670223
aF0.02822787881507427
aF0.0609044805341127
aF0.045097852794499585
aF0.015844221502350913
aF0.009402213333360374
aF0.016828829451291223
aF0.3886579516320616
aF0.03690035865958938
aF0.0604988294121522
aF0.06597350267070892
aF0.022874885376294167
aF0.009115843885471417
aF0.01080819332990185
aF0.5535259250799056
aF0.0034566877058158484
aF0.10546412101056173
ag158
ag158
aF0.03761203392093217
aF0.013820798711022292
aF0.005232815412874572
aF0.016234532638115164
aF0.30709518257189694
aF0.028295718534211815
aF0.06138345309148047
aF0.04533165635089378
aF0.015992087463101445
aF0.009443217138073848
aF0.016864449454748392
aF0.390243666278488
aF0.03689240867406851
aF0.061006766058392684
aF0.06628259834137502
aF0.023079127890409838
aF0.009145052845165666
aF0.010826428321311636
aF0.5549124240170998
aF0.0034581090004823754
aF0.10597010230536018
ag158
ag158
aF0.037399570415310404
aF0.013623290496423556
aF0.005215969318498014
aF0.016234532638115164
aF0.3062390134370758
aF0.028295718534211815
aF0.06063523254010405
aF0.04510682422821671
aF0.01578320566873241
aF0.00941183467106179
aF0.016864449454748392
aF0.38951568104105877
aF0.03708793525278288
aF0.06031885609908932
aF0.06587978029214
aF0.022746821884669814
aF0.009114433780188363
aF0.010826428321311636
aF0.5540495352755327
aF0.0034581090004823754
aF0.10526827358097411
ag158
ag158
aF0.03750743023729429
aF0.01372369756235125
aF0.005224531382478262
aF0.016234532638115164
aF0.3066690044281454
aF0.028295718534211815
aF0.06101586592439299
aF0.04522054459816916
aF0.01588901405348399
aF0.009427755557989241
aF0.016864449454748392
aF0.3898837094314294
aF0.03699017196342569
aF0.06066666036549344
aF0.06608275879430703
aF0.022914443911791812
aF0.009129881956168918
aF0.010826428321311636
aF0.5544850611697213
aF0.0034581090004823754
aF0.10562361612524106
ag158
ag158
aF0.037504009173318094
aF0.013720073521196283
aF0.005224250782385919
aF0.016234532638115164
aF0.3066625945559632
aF0.028295718534211815
aF0.061003208493980776
aF0.04521775687613694
aF0.01588596426314557
aF0.009427288849220209
aF0.016864449454748392
aF0.38987512236548033
aF0.03699017196342569
aF0.060657334550484325
aF0.06607934081249033
aF0.022910960180609133
aF0.0091296005639865
aF0.010826428321311636
aF0.5544765744202321
aF0.0034581090004823754
aF0.10561402365947176
ag158
ag158
aF0.03750814756740782
aF0.013724445328251818
aF0.005224605486497503
aF0.016234532638115164
aF0.30667424801462595
aF0.028295718534211815
aF0.06102220345686561
aF0.04522141246758262
aF0.015889901922666226
aF0.00942786630697277
aF0.016864449454748392
aF0.3898861996954135
aF0.03699017196342569
aF0.06066859604671549
aF0.06608450135986828
aF0.02291648947066465
aF0.009130051477645841
aF0.010826428321311636
aF0.5544868941407014
aF0.0034581090004823754
aF0.10562945614327607
ag158
ag158
aF0.037503291966666345
aF0.013719325908540145
aF0.005224176677478083
aF0.016234532638115164
aF0.3066573554845119
aF0.028295718534211815
aF0.060996872172981755
aF0.04521688912325637
aF0.015885076540699393
aF0.009427178125821145
aF0.016864449454748392
aF0.3898726321832908
aF0.03699017196342569
aF0.060655399614912266
aF0.06607759824443347
aF0.02290891489677027
aF0.00912943102925569
aF0.010826428321311636
aF0.5544747414109645
aF0.0034581090004823754
aF0.1056081847878508
ag158
ag158
aF0.03751254516154813
aF0.013728207922851758
aF0.005224863609862309
aF0.016234532638115164
aF0.306671264767621
aF0.028295718534211815
aF0.061034116402920335
aF0.04522662447734739
aF0.015894606753692204
aF0.009428714404832384
aF0.016864449454748392
aF0.3898967689984524
aF0.03699017196342569
aF0.06068364337481973
aF0.06608970475190026
aF0.022920569847589115
aF0.009130357653788619
aF0.010826428321311636
aF0.5544995140137533
aF0.0034581090004823754
aF0.10564237523753138
ag158
ag158
aF0.03749889493062568
aF0.013715564349676275
aF0.005223918563487608
aF0.016234532638115164
aF0.3066603334216844
aF0.028295718534211815
aF0.060984958642598126
aF0.045211678089872025
aF0.015880373280598777
aF0.009426330069715013
aF0.016864449454748392
aF0.38986206471199497
aF0.03699017196342569
aF0.06064035500323992
aF0.06607239522752713
aF0.02290483512217664
aF0.009129124842699619
aF0.010826428321311636
aF0.5544621232472178
aF0.0034581090004823754
aF0.10559526613104246
ag158
ag158
aF0.03754094746819339
aF0.01375311403409952
aF0.005226926034130833
aF0.016234532638115164
aF0.3067150416238049
aF0.028295718534211815
aF0.06112513933867102
aF0.04525600787338514
aF0.015921087725342835
aF0.009433296939384331
aF0.016864449454748392
aF0.38996499237070864
aF0.03699017196342569
aF0.06075532958496973
aF0.06613907405197755
aF0.022961507589322538
aF0.009133559137650694
aF0.010826428321311636
aF0.5545721408756429
aF0.0034581090004823754
aF0.10577864977130609
ag158
ag158
aF0.03747050964971434
aF0.013690682845445999
aF0.005221856936258766
aF0.016234532638115164
aF0.3066165554582346
aF0.028295718534211815
aF0.0608937416140529
aF0.04518231185318215
aF0.01585392365785167
aF0.009421747498064776
aF0.016864449454748392
aF0.38979383547817414
aF0.03699017196342569
aF0.06056868792266831
aF0.06602305230882566
aF0.0228639409198926
aF0.009125923384107868
aF0.010826428321311636
aF0.5543896443639442
aF0.0034581090004823754
aF0.10545911444829574
ag158
ag158
aF0.03758621401307278
aF0.01375169260743497
aF0.005235569020002367
aF0.01626657999948
aF0.3073825482790882
aF0.0283526959189654
aF0.06110768888943283
aF0.045332750098521786
aF0.015927546703662015
aF0.009451373722016846
aF0.016900831635251776
aF0.3909638969865215
aF0.03707873199677175
aF0.060827373080145436
aF0.06622816553280848
aF0.02296390759749489
aF0.009149426228351966
aF0.010851104551952704
aF0.5557482555268046
aF0.0034634235235268436
aF0.10584107920768834
ag158
ag158
aF0.03742531173926072
aF0.01369211081912542
aF0.005213225109429243
aF0.016202516276552833
aF0.30594987417107605
aF0.02823879625200474
aF0.060911459530751645
aF0.04510569239552413
aF0.015847481669584006
aF0.009403700932012513
aF0.016828106312474413
aF0.38879647314247995
aF0.03690171259462959
aF0.060496833856638156
aF0.06593409874813089
aF0.022861553658994973
aF0.009110077559716065
aF0.01080178080621641
aF0.5532148921117579
aF0.003452798587042158
aF0.1053967947237879
ag158
ag158
aF0.037403506066996176
aF0.01362067819469277
aF0.0052759400725295716
aF0.018230092010901852
aF0.3067360247182843
aF0.026132622041855284
aF0.060706583487603924
aF0.044997155623543804
aF0.01579255725091419
aF0.00942509153783361
aF0.019044673218705312
aF0.38915682105318555
aF0.045360125078063626
aF0.05822240175978858
aF0.06574310155253249
aF0.02281966330608059
aF0.009139208157706864
aF0.010141011199820379
aF0.5607793235951446
aF0.014968650698964399
aF0.1029276667627404
ag158
ag158
aF0.03757868799475219
aF0.013815294790839348
aF0.005166680112346631
aF0.014530957453311132
aF0.30450790587372756
aF0.029483508530525296
aF0.06166974950319235
aF0.04541578176324448
aF0.01597192077029426
aF0.009445277152626668
aF0.015125379858115262
aF0.3910800200956275
aF0.029003947120116204
aF0.06233094427728956
aF0.06639810865427206
aF0.022998662849536732
aF0.00913703572424428
aF0.01086688544052922
aF0.5492068313519477
aF-0.004584655258053625
aF0.10787475526660396
ag158
ag158
aF0.037497686136355776
aF0.013721220697682491
aF0.005213531592440875
aF0.01770706525274818
aF0.30651916005056756
aF0.02570570533677601
aF0.05778939775388822
aF0.04525884286277886
aF0.015894094687948657
aF0.009432250477763592
aF0.017765369217172516
aF0.3888919328847916
aF0.03699017196342569
aF0.06037596194336303
aF0.06605051785325036
aF0.022909422824238183
aF0.009141461822373919
aF0.010826428321311636
aF0.5565511409957855
aF0.0034581090004823754
aF0.10463523658916574
ag158
ag158
aF0.037486635916500956
aF0.013729880187600811
aF0.005220033055423491
aF0.01604133486887979
aF0.30499052166399926
aF0.02829571853421182
aF0.06109582369041049
aF0.04521061448955626
aF0.015883264729996016
aF0.009428297068724376
aF0.016983395108004624
aF0.38942018250827376
aF0.04488734473241478
aF0.05953039837794689
aF0.06609497656244662
aF0.022904340305953636
aF0.009174746331230424
aF0.010826428321311636
aF0.5545966387679067
aF0.0034581090004823754
aF0.10538271002257543
ag158
ag158
aF0.03743482773768991
aF0.013715213640401335
aF0.005194027631596248
aF0.01770706525274818
aF0.3028023068690206
aF0.02829571853421182
aF0.060098900336177985
aF0.04513498131186791
aF0.015855231956911783
aF0.009378342081298674
aF0.017765369217172516
aF0.38823536735532993
aF0.04645545338763327
aF0.05919967842842511
aF0.06585240450366228
aF0.022839952094327425
aF0.009125088712739357
aF0.010920208553320659
aF0.5578756786925536
aF0.0034581090004823754
aF0.10155821862142528
ag158
ag158
aF0.03753927272326288
aF0.01373856139828427
aF0.00523411702569946
aF0.016234532638115168
aF0.30481208918732944
aF0.024484754794491224
aF0.06061420823197068
aF0.045311345379687534
aF0.015917572989888815
aF0.009454830184108696
aF0.016864449454748395
aF0.38898240663767747
aF0.0354220633082072
aF0.060925632944081674
aF0.06630416394792132
aF0.02295721824330796
aF0.009219109977391364
aF0.010826428321311636
aF0.5615685678876368
aF0.0034581090004823754
aF0.10133489325933778
ag158
ag158
aF0.03748457370559891
aF0.013723100387408602
aF0.005246982826393753
aF0.016234532638115168
aF0.30580092511829987
aF0.02829571853421182
aF0.06585099574615436
aF0.04525544185516397
aF0.015878835233501344
aF0.009427292369841642
aF0.016864449454748395
aF0.3930107537330913
aF0.03699017196342569
aF0.06173360321409483
aF0.06605881738012026
aF0.02291844418142671
aF0.009128553308528542
aF0.01247682598030847
aF0.5526535665913671
aF0.0034581090004823754
aF0.10666316057761369
ag158
ag158
aF0.03753703115429428
aF0.013721283815788809
aF0.005240377324300541
aF0.017096028895331034
aF0.30554995963534987
aF0.02914975620911701
aF0.06000323373516109
aF0.045205909412200714
aF0.015883247424866593
aF0.009420883968779983
aF0.01712802738848672
aF0.38941618123315674
aF0.028883865053817136
aF0.06084868211019149
aF0.06606915230347361
aF0.022910501712704267
aF0.009129856790395451
aF0.010826428321311636
aF0.5594554748873092
aF0.0034581090004823754
aF0.10311462141268708
ag158
ag158
aF0.037384457753063406
aF0.013732806684819396
aF0.005169504642467818
aF0.01679875909154576
aF0.3027600327550701
aF0.023054666773030856
aF0.06646102001995945
aF0.04515577314995017
aF0.015894972223274625
aF0.009324275288572074
aF0.017320495696654486
aF0.3894229242807814
aF0.028883865053817136
aF0.061644045260846735
aF0.06575310343294663
aF0.022904078985685812
aF0.00899789098098682
aF0.006037267184281062
aF0.5546546660126317
aF0.0034581090004823754
aF0.10242762358296265
ag158
ag158
aF0.0376671884888204
aF0.013722227463976208
aF0.005289946189368719
aF0.017512260669527484
aF0.30910096625966765
aF0.02829571853421182
aF0.059016441387277394
aF0.045312373728581906
aF0.01589142746122771
aF0.009487491965133432
aF0.01847952365561573
aF0.3908190621703778
aF0.029573429133753746
aF0.06165193336987657
aF0.06633049346229108
aF0.02288867757935425
aF0.009242857721548849
aF0.008352179914170761
aF0.5641004198636104
aF0.0034581090004823754
aF0.10500173751862651
ag158
ag158
aF0.037646577982986866
aF0.0137455072513817
aF0.005277783019856249
aF0.019241957216693292
aF0.3035029700484876
aF0.02829571853421182
aF0.058663384718207486
aF0.045300598134132154
aF0.015901155676814695
aF0.009423193498584963
aF0.02029124140369365
aF0.39119281527522154
aF0.00773517495288561
aF0.060594517466192696
aF0.06625615290420604
aF0.022919427830873727
aF0.00926397605893952
aF0.011538871474064646
aF0.5537085445270346
aF0.0034581090004823754
aF0.10582002491152867
ag158
ag158
aF0.03742483569506993
aF0.013723996663290735
aF0.005213545727496339
aF0.014088604316752906
aF0.3084993037672666
aF0.025338792469396413
aF0.06544669687206048
aF0.04512639996920301
aF0.01589350054687258
aF0.009378950837793242
aF0.013701235439541463
aF0.38997230299176006
aF0.028883865053817136
aF0.06063633722944162
aF0.06593497489755201
aF0.022899860518259426
aF0.009078224009856311
aF0.007769692397590339
aF0.5592898130203471
aF0.0034581090004823754
aF0.10434492607417854
ag158
ag158
aF0.03750388754385836
aF0.013722079620484676
aF0.0052243910818503304
aF0.016234532638115168
aF0.3066657998410558
aF0.02829571853421182
aF0.06100953708038136
aF0.04521848064961283
aF0.015888541417736546
aF0.009427522196220598
aF0.016864449454748395
aF0.3898794156340403
aF0.03699017196342569
aF0.060893762815191946
aF0.06608104966130451
aF0.022915226448823486
aF0.009129741246424924
aF0.010826428321311636
aF0.5544808174420542
aF0.0034581090004823754
aF0.10579116198306533
ag158
ag158
aF0.037510960762689206
aF0.013720696180008594
aF0.005224394395112812
aF0.016234532638115168
aF0.3066657998410558
aF0.02829571853421182
aF0.06100953708038136
aF0.04522244867943643
aF0.01588450134871096
aF0.009427522196220598
aF0.016864449454748395
aF0.3904936615223286
aF0.03699017196342569
aF0.06066199730104393
aF0.06607643268550573
aF0.022908206028070772
aF0.009129741246424924
aF0.010826428321311636
aF0.5534033434134317
aF0.0034581090004823754
aF0.10561881952272886
ag158
ag158
aF0.03741792384419931
aF0.013734098463797875
aF0.005232164184125357
aF0.016234532638115168
aF0.3056175430682468
aF0.02829571853421182
aF0.06100953708038136
aF0.045179340040255304
aF0.015901117230243643
aF0.009446414630603037
aF0.016864449454748395
aF0.39078918856415923
aF0.03699017196342569
aF0.06126940156297602
aF0.06590669364290289
aF0.022917090595051703
aF0.009156204064774095
aF0.010826428321311636
aF0.5514972714665979
aF0.0034581090004823754
aF0.10764779652161414
ag158
ag158
aF0.03751936543648394
aF0.013711633540821548
aF0.005198218663703886
aF0.016234532638115168
aF0.30546248367050616
aF0.02829571853421182
aF0.06277298217777423
aF0.04517752010488237
aF0.01586977339235741
aF0.009406137514138704
aF0.016864449454748395
aF0.38963155945886524
aF0.03699017196342569
aF0.06188419010388143
aF0.06616448537163443
aF0.022886254956210748
aF0.009123603488680394
aF0.010826428321311636
aF0.5556399069414372
aF0.0034581090004823754
aF0.10476144992743398
ag158
ag158
aF0.03752944425027199
aF0.01373173487439996
aF0.0052282967690567665
aF0.016251477754023164
aF0.30714172347057056
aF0.02794908828725697
aF0.06122719840884348
aF0.045223853940629194
aF0.015889696999937947
aF0.009420875784698336
aF0.017013015050551472
aF0.39000407442495344
aF0.035982498337130034
aF0.059840546456451364
aF0.06609816845310426
aF0.022927132015852256
aF0.009120336453917416
aF0.010492466921260855
aF0.5545030312051047
aF0.00424110047509731
aF0.1037243159304628
ag158
ag158
aF0.03748233252586406
aF0.013713876614330319
aF0.0052231645962670875
aF0.016149433891793907
aF0.3060654385350134
aF0.028517956284297583
aF0.061025121282722174
aF0.04520337713562272
aF0.01588475717808466
aF0.009429396464023323
aF0.01677291535707813
aF0.38918983205602975
aF0.03824427050865396
aF0.06128558336717063
aF0.0660161221290297
aF0.022888530900641336
aF0.009138540970802937
aF0.011074431005582079
aF0.5535127608180895
aF0.0028517761077491988
aF0.10729724138377411
ag158
ag158
aF0.03772542010494583
aF0.013765947385262956
aF0.005279801951036286
aF0.016480345397757546
aF0.3131648879638569
aF0.027898549411145
aF0.06363225566789452
aF0.04522908873496454
aF0.015887217261979347
aF0.009430310774780829
aF0.016827228252870002
aF0.39002937001613547
aF0.03718259020319785
aF0.06063106223155803
aF0.06609366860325673
aF0.022912835214936027
aF0.009128918042830446
aF0.010840860841289853
aF0.5543819668043796
aF0.003653701638812252
aF0.10555949703767165
ag158
ag158
aF0.03727607038370468
aF0.013675182074779127
aF0.005168492664242226
aF0.015977337260946363
aF0.2999878165758979
aF0.02875464420878595
aF0.05835200442541417
aF0.04521073118392779
aF0.015888027739883976
aF0.009424174525967938
aF0.01690157887911723
aF0.38968773138314633
aF0.036800178314247714
aF0.06069434645912493
aF0.06606778010762157
aF0.0229124947301385
aF0.009130751536765727
aF0.01081118278307239
aF0.5545674140492853
aF0.003264283164295419
aF0.10566731089397305
ag158
ag158
aF0.03771880897607854
aF0.013764480107496372
aF0.0052745955652922635
aF0.016453879295894952
aF0.312406445982437
aF0.02797916714968942
aF0.06334449135469973
aF0.04524202698716106
aF0.015890788470056844
aF0.009430031146738148
aF0.0168322887458955
aF0.39004684831065245
aF0.037098602213079084
aF0.060714323581766455
aF0.0661251718213987
aF0.02291754035069815
aF0.00913035515114244
aF0.010835624721305318
aF0.5541891923238602
aF0.0036216579835147145
aF0.10567485912016725
ag158
ag158
aF0.0372815936278203
aF0.013676541327343186
aF0.005173431887303689
aF0.016008598638472503
aF0.30075357599813357
aF0.028652391884921517
aF0.058622949019301096
aF0.04519636927615889
aF0.015884286941221744
aF0.009424193663215513
aF0.01689380365933879
aF0.38972217613238286
aF0.03689612350292692
aF0.06060123483599512
aF0.06603417490089564
aF0.022907331607757483
aF0.009129304452538185
aF0.010814793122548723
aF0.5547429769211834
aF0.003300382912073815
aF0.10553989896432335
ag158
ag158
aF0.03749911461219464
aF0.013718452421323276
aF0.005222824141394147
aF0.016229323970262673
aF0.3063118002863586
aF0.028428935962997455
aF0.06103730054031812
aF0.04522152591449192
aF0.015888198713561008
aF0.009428103998732144
aF0.016863789151007894
aF0.3898921080067613
aF0.03698757499687945
aF0.0615048294887875
aF0.06608627181017997
aF0.02291395191707047
aF0.00913011771864151
aF0.010826241203837721
aF0.5544731340650969
aF0.003457970284819867
aF0.10694309080347784
ag158
ag158
aF0.03751240612968035
aF0.013725346785226616
aF0.005225966796361333
aF0.016239729923071915
aF0.3070171380047
aF0.02816689584588862
aF0.06108958524731831
aF0.04521675652257499
aF0.015886776210676194
aF0.009426916669044463
aF0.01686511154059677
aF0.3898651831364634
aF0.03699276337294759
aF0.05982230642473061
aF0.06607579091822796
aF0.02291144223404388
aF0.009129375665988367
aF0.01082662190164333
aF0.5544880501870848
aF0.003458249186987018
aF0.10430585486909424
ag158
ag158
aF0.03751002805362463
aF0.013723378000757343
aF0.005224946271939753
aF0.016236300664257925
aF0.3067274664442623
aF0.028199784361610702
aF0.06205203906762551
aF0.04521903582622839
aF0.01588746774080215
aF0.009427482323881181
aF0.016864274128586973
aF0.38986283200633637
aF0.03698964057535854
aF0.06075473178675483
aF0.06608213116678231
aF0.022912395134223173
aF0.009129816976885292
aF0.010826436437562901
aF0.5544678161019169
aF0.00345806921619465
aF0.10577738728236127
ag158
ag158
aF0.03750167569493683
aF0.01372050281265583
aF0.005223894231819926
aF0.01623291046278327
aF0.30661396041433486
aF0.028392714533034717
aF0.0600058926402376
aF0.04521927152360706
aF0.015887505983026316
aF0.00942757377327915
aF0.01686463377174693
aF0.3898959507909241
aF0.03699070676698242
aF0.06056812215150621
aF0.06607990749305923
aF0.02291299896141803
aF0.009129677273385553
aF0.010826427624739388
aF0.5544935636200171
aF0.0034581540302711412
aF0.10546461606646769
ag158
ag158
aF0.03742287031876569
aF0.013708638501134159
aF0.005203511906349094
aF0.01594617215324117
aF0.2935160364542741
aF0.02786537329618519
aF0.05636077210399076
aF0.04524845724284923
aF0.01589924648195693
aF0.009476182355296282
aF0.01712096162847559
aF0.39018770225669197
aF0.03478812670921247
aF0.06107528806939048
aF0.06611515942453823
aF0.022931123591050876
aF0.00916228869254283
aF0.010805333423914808
aF0.5570332412271198
aF0.006229248910056846
aF0.10645302915277514
ag158
ag158
aF0.03756519628878437
aF0.013730852424838964
aF0.005252887210893951
aF0.016578457041787398
aF0.31951089748814687
aF0.0287018098446584
aF0.06542285012272954
aF0.04517064867883047
aF0.015863860803120654
aF0.009341953593477809
aF0.016207594849601638
aF0.3894974515850407
aF0.04163345800739211
aF0.05961992236520613
aF0.06600513980610574
aF0.022873621606995135
aF0.009077975248557482
aF0.010851319800663449
aF0.5479223152651841
aF-0.002255625655203139
aF0.1028355605872004
ag158
ag158
aF0.0374432010982333
aF0.013711417150130753
aF0.00520815143081034
aF0.016072677730843064
aF0.2961740336660246
aF0.02795784612339825
aF0.057407027794860836
aF0.04523813617704162
aF0.015896812968404634
aF0.009464250230918124
aF0.01708951445175227
aF0.39006652852895995
aF0.034875553134850065
aF0.06100776508994034
aF0.0660999227320116
aF0.022926056109138716
aF0.009155991641856868
aF0.010801796829075434
aF0.5568070881262767
aF0.006030450022500831
aF0.10635230764831878
ag158
ag158
aF0.037547576991266325
aF0.013727872947020428
aF0.005242017182015438
aF0.01642298673995702
aF0.31634598169184996
aF0.02859608823677732
aF0.06423874958454252
aF0.0451933144056488
aF0.015872947960997343
aF0.009375699314540506
aF0.01646757959750294
aF0.389703651069772
aF0.04025057832397845
aF0.06001462335017163
aF0.0660501242997503
aF0.022891344668025088
aF0.009096284239116485
aF0.01085648390690886
aF0.5502089136225387
aF-0.0006762733241838619
aF0.10400897846252896
ag158
ag158
aF0.037533386444906246
aF0.01374119540188457
aF0.005237422696136643
aF0.016234532638115164
aF0.3073804006028191
aF0.028295718534211815
aF0.06119281563366923
aF0.0452423633752307
aF0.015903564592121944
aF0.009439587483041812
aF0.016864449454748392
aF0.3910789275019902
aF0.03699017196342569
aF0.06068909736457334
aF0.06611205523607225
aF0.02293662763486471
aF0.00914212019722676
aF0.010826428321311636
aF0.5555851086421505
aF0.0034581090004823754
aF0.1057236550845218
ag158
ag158
aF0.03747805891834941
aF0.013702575302362569
aF0.005211359472538512
aF0.016234532638115164
aF0.30595119962880324
aF0.028295718534211815
aF0.060826258644246914
aF0.04519593797265402
aF0.015871417149799647
aF0.009415456911775281
aF0.016864449454748392
aF0.3886799039891718
aF0.03699017196342569
aF0.06063489724740602
aF0.06605004408653643
aF0.022888782890942105
aF0.009117362295623115
aF0.010826428321311636
aF0.5533765262419593
aF0.0034581090004823754
aF0.10551398396093602
ag158
ag158
aF0.03755044613232844
aF0.013772496579977306
aF0.005262796365621811
aF0.016234532638115164
aF0.3086954153712556
aF0.028295718534211815
aF0.06113457474037693
aF0.045264457157542314
aF0.015935609975397308
aF0.009482538566985966
aF0.016864449454748392
aF0.3922557493815854
aF0.03699017196342569
aF0.06069095032601603
aF0.06614643816336999
aF0.022988800456445586
aF0.009190192685830078
aF0.010826428321311636
aF0.5558949089626908
aF0.0034581090004823754
aF0.1062882961885781
ag158
ag158
aF0.037460993258129585
aF0.013671290906469711
aF0.005185985794000172
aF0.016234532638115164
aF0.30462489432709405
aF0.028295718534211815
aF0.060884499516422934
aF0.04517384415995679
aF0.0158393996841833
aF0.009372505792897296
aF0.016864449454748392
aF0.38750308051530724
aF0.03699017196342569
aF0.06063304428607479
aF0.0660156611516635
aF0.022836637922854952
aF0.009069289798464924
aF0.010826428321311636
aF0.5530667251266679
aF0.0034581090004823754
aF0.10494934259078251
ag158
ag158
aF0.040121007197436456
aF0.013893898700218269
aF0.0053443832603407414
aF0.016234532638115164
aF0.322389873561006
aF0.028295718534211815
aF0.06224624648689066
aF0.046945716814896024
aF0.01601921202810607
aF0.00955797680330644
aF0.016864449454748392
aF0.4009023816002525
aF0.03699017196342569
aF0.06154560424339596
aF0.06830911860098322
aF0.02308767182164292
aF0.009258834780805286
aF0.01090153660105614
aF0.5689489525133307
aF0.0034581090004823754
aF0.10690524220228154
ag158
ag158
aF0.03574724271144992
aF0.013589549680810683
aF0.005133081018503614
aF0.016234532638115164
aF0.2970735932433958
aF0.028295718534211815
aF0.06029111940625842
aF0.04353947246712045
aF0.015757220305140013
aF0.009298291278401274
aF0.016864449454748392
aF0.3790955824406558
aF0.03699017196342569
aF0.05978662406593726
aF0.06377909726912656
aF0.022733071159574476
aF0.00899632799775015
aF0.010751320187259083
aF0.5393873175319783
aF0.0034581090004823754
aF0.10428624275257257
ag158
ag158
atp247
ba(lp248
g15
(g16
(dp249
g18
g19
(g20
(I0
tp250
g22
tp251
Rp252
(I1
(I64
tp253
g29
I00
(lp254
g33
ag34
ag35
ag36
ag37
ag38
ag39
ag40
ag41
ag42
ag43
ag44
ag45
ag46
ag47
ag48
ag49
ag50
ag51
ag52
ag53
ag54
ag55
ag56
ag57
ag58
ag59
ag60
ag61
ag62
ag63
ag64
ag65
ag66
ag67
ag68
ag69
ag70
ag71
ag72
ag73
ag74
ag75
ag76
ag77
ag78
ag79
ag80
ag81
ag82
ag83
ag84
ag85
ag86
ag87
ag88
ag89
ag90
ag91
ag92
ag93
ag94
ag95
ag96
atp255
bsg98
Nstp256
Rp257
a(dp258
S'0.14.1'
p259
(dp260
S'axes'
p261
g14
sS'blocks'
p262
(lp263
(dp264
S'mgr_locs'
p265
c__builtin__
slice
p266
(I0
I64
I1
tp267
Rp268
sS'values'
p269
g119
sasstp270
bsb.