ccopy_reg
_reconstructor
p0
(cpandas.core.frame
DataFrame
p1
c__builtin__
object
p2
Ntp3
Rp4
(dp5
S'_metadata'
p6
(lp7
sS'_typ'
p8
S'dataframe'
p9
sS'_data'
p10
g0
(cpandas.core.internals
BlockManager
p11
g2
Ntp12
Rp13
((lp14
cpandas.core.indexes.base
_new_Index
p15
(cpandas.core.indexes.base
Index
p16
(dp17
S'data'
p18
cnumpy.core.multiarray
_reconstruct
p19
(cnumpy
ndarray
p20
(I0
tp21
S'b'
p22
tp23
Rp24
(I1
(I42
tp25
cnumpy
dtype
p26
(S'O8'
p27
I0
I1
tp28
Rp29
(I3
S'|'
p30
NNNI-1
I-1
I63
tp31
bI00
(lp32
S'year'
p33
aS'type'
p34
aS'procOriginal'
p35
aS'proc'
p36
aS'proc_s0'
p37
aS'cat'
p38
aS'inputWSFile'
p39
aS'nominalDataName'
p40
aS'modelWSFile'
p41
aS'model'
p42
aS'rate'
p43
aS'nominal_yield'
p44
aS'sumw2'
p45
aS'nominal_yield_COWCorr'
p46
aS'weight_trigger_sf_up_yield'
p47
aS'weight_trigger_sf_down_yield'
p48
aS'weight_puWeight_up_yield'
p49
aS'weight_puWeight_down_yield'
p50
aS'JER_up_yield'
p51
aS'JER_down_yield'
p52
aS'JES_up_yield'
p53
aS'JES_down_yield'
p54
aS'MET_JER_up_yield'
p55
aS'MET_JER_down_yield'
p56
aS'MET_JES_up_yield'
p57
aS'MET_JES_down_yield'
p58
aS'MET_Unclustered_up_yield'
p59
aS'MET_Unclustered_down_yield'
p60
aS'weight_btag_deepjet_sf_SelectedJet_jes_up_yield'
p61
aS'weight_btag_deepjet_sf_SelectedJet_jes_down_yield'
p62
aS'weight_btag_deepjet_sf_SelectedJet_lfstats1_up_yield'
p63
aS'weight_btag_deepjet_sf_SelectedJet_lfstats1_down_yield'
p64
aS'weight_btag_deepjet_sf_SelectedJet_lfstats2_up_yield'
p65
aS'weight_btag_deepjet_sf_SelectedJet_lfstats2_down_yield'
p66
aS'weight_btag_deepjet_sf_SelectedJet_hfstats1_up_yield'
p67
aS'weight_btag_deepjet_sf_SelectedJet_hfstats1_down_yield'
p68
aS'weight_btag_deepjet_sf_SelectedJet_hfstats2_up_yield'
p69
aS'weight_btag_deepjet_sf_SelectedJet_hfstats2_down_yield'
p70
aS'weight_btag_deepjet_sf_SelectedJet_cferr1_up_yield'
p71
aS'weight_btag_deepjet_sf_SelectedJet_cferr1_down_yield'
p72
aS'weight_btag_deepjet_sf_SelectedJet_cferr2_up_yield'
p73
aS'weight_btag_deepjet_sf_SelectedJet_cferr2_down_yield'
p74
atp75
bsS'name'
p76
Nstp77
Rp78
ag15
(cpandas.core.indexes.numeric
Int64Index
p79
(dp80
g18
g19
(g20
(I0
tp81
g22
tp82
Rp83
(I1
(I5
tp84
g26
(S'i8'
p85
I0
I1
tp86
Rp87
(I3
S'<'
p88
NNNI-1
I-1
I0
tp89
bI00
S'\x00\x00\x00\x00\x00\x00\x00\x00\x01\x00\x00\x00\x00\x00\x00\x00\x02\x00\x00\x00\x00\x00\x00\x00\x03\x00\x00\x00\x00\x00\x00\x00\x04\x00\x00\x00\x00\x00\x00\x00'
p90
tp91
bsg76
Nstp92
Rp93
a(lp94
g19
(g20
(I0
tp95
g22
tp96
Rp97
(I1
(I42
I5
tp98
g29
I00
(lp99
S'2016'
p100
aS'2017'
p101
aS'2018'
p102
aS'merged'
p103
ag103
aS'sig'
p104
ag104
ag104
aS'bkg'
p105
ag18
aS'NMSSMYggHbbMX700MY100'
p106
ag106
ag106
aS'bkg_mass'
p107
aS'data_obs'
p108
aS'NMSSMYggHbbMX700MY100_2016_hgg'
p109
aS'NMSSMYggHbbMX700MY100_2017_hgg'
p110
aS'NMSSMYggHbbMX700MY100_2018_hgg'
p111
ag107
ag108
ag106
ag106
ag106
aS'-'
p112
ag112
aS'SR1'
p113
ag113
ag113
ag113
ag113
aS'/home/users/fsetti/flashggFinalFit_resonant/CMSSW_10_2_13/src/flashggFinalFit/files/15Aug2022_bbgg_res//ws_signal_2016/output_NMSSMYggHbbMX700MY100_M100_13TeV_pythia8_NMSSMYggHbbMX700MY100.root'
p114
aS'/home/users/fsetti/flashggFinalFit_resonant/CMSSW_10_2_13/src/flashggFinalFit/files/15Aug2022_bbgg_res//ws_signal_2017/output_NMSSMYggHbbMX700MY100_M100_13TeV_pythia8_NMSSMYggHbbMX700MY100.root'
p115
aS'/home/users/fsetti/flashggFinalFit_resonant/CMSSW_10_2_13/src/flashggFinalFit/files/15Aug2022_bbgg_res//ws_signal_2018/output_NMSSMYggHbbMX700MY100_M100_13TeV_pythia8_NMSSMYggHbbMX700MY100.root'
p116
ag112
ag112
aS'NMSSMYggHbbMX700MY100_100_13TeV_SR1'
p117
aS'NMSSMYggHbbMX700MY100_100_13TeV_SR1'
p118
aS'NMSSMYggHbbMX700MY100_100_13TeV_SR1'
p119
ag112
ag112
aS'./Models/signal/CMS-HGG_sigfit_packaged_SR1.root'
p120
aS'./Models/signal/CMS-HGG_sigfit_packaged_SR1.root'
p121
aS'./Models/signal/CMS-HGG_sigfit_packaged_SR1.root'
p122
aS'./Models/background/CMS-HGG_multipdf_SR1.root'
p123
ag123
aS'wsig_13TeV:hggpdfsmrel_NMSSMYggHbbMX700MY100_2016_SR1_13TeV'
p124
aS'wsig_13TeV:hggpdfsmrel_NMSSMYggHbbMX700MY100_2017_SR1_13TeV'
p125
aS'wsig_13TeV:hggpdfsmrel_NMSSMYggHbbMX700MY100_2018_SR1_13TeV'
p126
aS'multipdf:CMS_hgg_SR1_13TeV_bkgshape'
p127
aS'multipdf:roohist_data_mass_SR1'
p128
aI1000
aI1000
aI1000
aF1.0
aI-1
aF2.4612551989855427
aF2.134350275683074
aF3.9191496683916425
ag112
ag112
aF0.0009791241130195241
aF0.0008485641436998897
aF0.0024293625936439005
ag112
ag112
aF2.4612551989855427
aF2.134350275683074
aF3.9191496683916425
ag112
ag112
aF2.483572473406035
aF2.165229163840657
aF3.9310267425244403
ag112
ag112
aF2.4389711770690883
aF2.103533098132149
aF3.907290354888284
ag112
ag112
aF2.445294500417736
aF2.109851607036609
aF3.878154507107844
ag112
ag112
aF2.4756213502362048
aF2.1560908648331085
aF3.952690377905253
ag112
ag112
aF2.4593927511184637
aF2.140612498489395
aF3.9275557824496685
ag112
ag112
aF2.469045986582613
aF2.1490344116605757
aF3.9389105432533955
ag112
ag112
aF2.462247427164901
aF2.1608836993471665
aF3.933217450055049
ag112
ag112
aF2.456121229271073
aF2.1214697212404223
aF3.931750903900739
ag112
ag112
aF2.4643679219017267
aF2.146348805686559
aF3.9328333728993163
ag112
ag112
aF2.4643679219017267
aF2.146348805686559
aF3.9328333728993163
ag112
ag112
aF2.4643679219017267
aF2.146348805686559
aF3.9328333728993163
ag112
ag112
aF2.4643679219017267
aF2.146348805686559
aF3.9328333728993163
ag112
ag112
aF2.4643679219017267
aF2.146348805686559
aF3.9328333728993163
ag112
ag112
aF2.4643679219017267
aF2.146348805686559
aF3.9328333728993163
ag112
ag112
aF2.4292276200772975
aF2.1330142139217925
aF3.9084483950809386
ag112
ag112
aF2.4948646293084367
aF2.1415474366528606
aF3.940648786828946
ag112
ag112
aF2.3323804806329584
aF2.13515707634579
aF3.9218236006658014
ag112
ag112
aF2.6030664510405708
aF2.133125678247017
aF3.916443819985828
ag112
ag112
aF2.3440829360609268
aF2.133888918430722
aF3.9195800908783256
ag112
ag112
aF2.5896450135183295
aF2.1346097785740987
aF3.9189648783739557
ag112
ag112
aF2.570064196869225
aF2.1181331221876953
aF3.8873955511995364
ag112
ag112
aF2.3502358051405254
aF2.1503528915399213
aF3.9507259323453345
ag112
ag112
aF2.3913605720703432
aF2.1266154570383398
aF3.9118547287934056
ag112
ag112
aF2.5275129671717536
aF2.1422769368972268
aF3.9265838890206064
ag112
ag112
aF2.5235680972510752
aF2.1330251190875593
aF3.9197975717873472
ag112
ag112
aF2.4078976931627927
aF2.1366326791833044
aF3.919254446604461
ag112
ag112
aF2.509276321919259
aF2.132966965855649
aF3.9195433695780877
ag112
ag112
aF2.4220106737166924
aF2.1364000407545736
aF3.919128102327056
ag112
ag112
atp129
ba(lp130
g15
(g16
(dp131
g18
g19
(g20
(I0
tp132
g22
tp133
Rp134
(I1
(I42
tp135
g29
I00
(lp136
g33
ag34
ag35
ag36
ag37
ag38
ag39
ag40
ag41
ag42
ag43
ag44
ag45
ag46
ag47
ag48
ag49
ag50
ag51
ag52
ag53
ag54
ag55
ag56
ag57
ag58
ag59
ag60
ag61
ag62
ag63
ag64
ag65
ag66
ag67
ag68
ag69
ag70
ag71
ag72
ag73
ag74
atp137
bsg76
Nstp138
Rp139
a(dp140
S'0.14.1'
p141
(dp142
S'axes'
p143
g14
sS'blocks'
p144
(lp145
(dp146
S'mgr_locs'
p147
c__builtin__
slice
p148
(I0
I42
I1
tp149
Rp150
sS'values'
p151
g97
sasstp152
bsb.