ccopy_reg
_reconstructor
p0
(cpandas.core.frame
DataFrame
p1
c__builtin__
object
p2
Ntp3
Rp4
(dp5
S'_metadata'
p6
(lp7
sS'_typ'
p8
S'dataframe'
p9
sS'_data'
p10
g0
(cpandas.core.internals
BlockManager
p11
g2
Ntp12
Rp13
((lp14
cpandas.core.indexes.base
_new_Index
p15
(cpandas.core.indexes.base
Index
p16
(dp17
S'data'
p18
cnumpy.core.multiarray
_reconstruct
p19
(cnumpy
ndarray
p20
(I0
tp21
S'b'
p22
tp23
Rp24
(I1
(I42
tp25
cnumpy
dtype
p26
(S'O8'
p27
I0
I1
tp28
Rp29
(I3
S'|'
p30
NNNI-1
I-1
I63
tp31
bI00
(lp32
S'year'
p33
aS'type'
p34
aS'procOriginal'
p35
aS'proc'
p36
aS'proc_s0'
p37
aS'cat'
p38
aS'inputWSFile'
p39
aS'nominalDataName'
p40
aS'modelWSFile'
p41
aS'model'
p42
aS'rate'
p43
aS'nominal_yield'
p44
aS'sumw2'
p45
aS'nominal_yield_COWCorr'
p46
aS'weight_trigger_sf_up_yield'
p47
aS'weight_trigger_sf_down_yield'
p48
aS'weight_puWeight_up_yield'
p49
aS'weight_puWeight_down_yield'
p50
aS'JER_up_yield'
p51
aS'JER_down_yield'
p52
aS'JES_up_yield'
p53
aS'JES_down_yield'
p54
aS'MET_JER_up_yield'
p55
aS'MET_JER_down_yield'
p56
aS'MET_JES_up_yield'
p57
aS'MET_JES_down_yield'
p58
aS'MET_Unclustered_up_yield'
p59
aS'MET_Unclustered_down_yield'
p60
aS'weight_btag_deepjet_sf_SelectedJet_jes_up_yield'
p61
aS'weight_btag_deepjet_sf_SelectedJet_jes_down_yield'
p62
aS'weight_btag_deepjet_sf_SelectedJet_lfstats1_up_yield'
p63
aS'weight_btag_deepjet_sf_SelectedJet_lfstats1_down_yield'
p64
aS'weight_btag_deepjet_sf_SelectedJet_lfstats2_up_yield'
p65
aS'weight_btag_deepjet_sf_SelectedJet_lfstats2_down_yield'
p66
aS'weight_btag_deepjet_sf_SelectedJet_hfstats1_up_yield'
p67
aS'weight_btag_deepjet_sf_SelectedJet_hfstats1_down_yield'
p68
aS'weight_btag_deepjet_sf_SelectedJet_hfstats2_up_yield'
p69
aS'weight_btag_deepjet_sf_SelectedJet_hfstats2_down_yield'
p70
aS'weight_btag_deepjet_sf_SelectedJet_cferr1_up_yield'
p71
aS'weight_btag_deepjet_sf_SelectedJet_cferr1_down_yield'
p72
aS'weight_btag_deepjet_sf_SelectedJet_cferr2_up_yield'
p73
aS'weight_btag_deepjet_sf_SelectedJet_cferr2_down_yield'
p74
atp75
bsS'name'
p76
Nstp77
Rp78
ag15
(cpandas.core.indexes.numeric
Int64Index
p79
(dp80
g18
g19
(g20
(I0
tp81
g22
tp82
Rp83
(I1
(I5
tp84
g26
(S'i8'
p85
I0
I1
tp86
Rp87
(I3
S'<'
p88
NNNI-1
I-1
I0
tp89
bI00
S'\x00\x00\x00\x00\x00\x00\x00\x00\x01\x00\x00\x00\x00\x00\x00\x00\x02\x00\x00\x00\x00\x00\x00\x00\x03\x00\x00\x00\x00\x00\x00\x00\x04\x00\x00\x00\x00\x00\x00\x00'
p90
tp91
bsg76
Nstp92
Rp93
a(lp94
g19
(g20
(I0
tp95
g22
tp96
Rp97
(I1
(I42
I5
tp98
g29
I00
(lp99
S'2016'
p100
aS'2017'
p101
aS'2018'
p102
aS'merged'
p103
ag103
aS'sig'
p104
ag104
ag104
aS'bkg'
p105
ag18
aS'NMSSMYggHbbMX600MY90'
p106
ag106
ag106
aS'bkg_mass'
p107
aS'data_obs'
p108
aS'NMSSMYggHbbMX600MY90_2016_hgg'
p109
aS'NMSSMYggHbbMX600MY90_2017_hgg'
p110
aS'NMSSMYggHbbMX600MY90_2018_hgg'
p111
ag107
ag108
ag106
ag106
ag106
aS'-'
p112
ag112
aS'SR1'
p113
ag113
ag113
ag113
ag113
aS'/home/users/fsetti/flashggFinalFit_resonant/CMSSW_10_2_13/src/flashggFinalFit/files/15Aug2022_bbgg_res//ws_signal_2016/output_NMSSMYggHbbMX600MY90_M90_13TeV_pythia8_NMSSMYggHbbMX600MY90.root'
p114
aS'/home/users/fsetti/flashggFinalFit_resonant/CMSSW_10_2_13/src/flashggFinalFit/files/15Aug2022_bbgg_res//ws_signal_2017/output_NMSSMYggHbbMX600MY90_M90_13TeV_pythia8_NMSSMYggHbbMX600MY90.root'
p115
aS'/home/users/fsetti/flashggFinalFit_resonant/CMSSW_10_2_13/src/flashggFinalFit/files/15Aug2022_bbgg_res//ws_signal_2018/output_NMSSMYggHbbMX600MY90_M90_13TeV_pythia8_NMSSMYggHbbMX600MY90.root'
p116
ag112
ag112
aS'NMSSMYggHbbMX600MY90_90_13TeV_SR1'
p117
aS'NMSSMYggHbbMX600MY90_90_13TeV_SR1'
p118
aS'NMSSMYggHbbMX600MY90_90_13TeV_SR1'
p119
ag112
ag112
aS'./Models/signal/CMS-HGG_sigfit_packaged_SR1.root'
p120
aS'./Models/signal/CMS-HGG_sigfit_packaged_SR1.root'
p121
aS'./Models/signal/CMS-HGG_sigfit_packaged_SR1.root'
p122
aS'./Models/background/CMS-HGG_multipdf_SR1.root'
p123
ag123
aS'wsig_13TeV:hggpdfsmrel_NMSSMYggHbbMX600MY90_2016_SR1_13TeV'
p124
aS'wsig_13TeV:hggpdfsmrel_NMSSMYggHbbMX600MY90_2017_SR1_13TeV'
p125
aS'wsig_13TeV:hggpdfsmrel_NMSSMYggHbbMX600MY90_2018_SR1_13TeV'
p126
aS'multipdf:CMS_hgg_SR1_13TeV_bkgshape'
p127
aS'multipdf:roohist_data_mass_SR1'
p128
aI1000
aI1000
aI1000
aF1.0
aI-1
aF2.0761974974517474
aF1.5656762954150447
aF3.3620646071017957
ag112
ag112
aF0.0007982637831521678
aF0.0005934780547396498
aF0.002036121456412156
ag112
ag112
aF2.0761974974517474
aF1.5656762954150447
aF3.3620646071017957
ag112
ag112
aF2.095429239094562
aF1.5889421718343184
aF3.372655601139919
ag112
ag112
aF2.0569972405090087
aF1.542457115383961
aF3.351490067817305
ag112
ag112
aF2.056751268034841
aF1.540899434162752
aF3.324735956531227
ag112
ag112
aF2.094005803415174
aF1.586799103728912
aF3.3937806848748324
ag112
ag112
aF2.0792551380795623
aF1.567323150349594
aF3.3639446050155657
ag112
ag112
aF2.0855761359999
aF1.5858079963116531
aF3.373722276915021
ag112
ag112
aF2.098173628446686
aF1.602594304502491
aF3.4130158207500094
ag112
ag112
aF2.063694297853645
aF1.5485309956103728
aF3.319579239609325
ag112
ag112
aF2.081544073368587
aF1.5746637761217763
aF3.37052765102818
ag112
ag112
aF2.081544073368587
aF1.5746637761217763
aF3.37052765102818
ag112
ag112
aF2.081544073368587
aF1.5746637761217763
aF3.37052765102818
ag112
ag112
aF2.081544073368587
aF1.5746637761217763
aF3.37052765102818
ag112
ag112
aF2.081544073368587
aF1.5746637761217763
aF3.37052765102818
ag112
ag112
aF2.081544073368587
aF1.5746637761217763
aF3.37052765102818
ag112
ag112
aF2.0493057199610587
aF1.5661407302076522
aF3.359234869358421
ag112
ag112
aF2.1052239611587438
aF1.5690701021795022
aF3.3758908795174696
ag112
ag112
aF1.974215918348302
aF1.565633239225869
aF3.363463623004391
ag112
ag112
aF2.1881353633077327
aF1.5654456413392672
aF3.3608038878356337
ag112
ag112
aF1.9841355586193445
aF1.5648150112117767
aF3.362362909027516
ag112
ag112
aF2.1767421690139463
aF1.5663617388818487
aF3.3619689882210086
ag112
ag112
aF2.167995891410199
aF1.5515692991125702
aF3.332179879423816
ag112
ag112
aF1.9828856164917414
aF1.5796872837653588
aF3.3918766846168293
ag112
ag112
aF2.0178343995672456
aF1.5616088409982911
aF3.355351496124125
ag112
ag112
aF2.1316273537439394
aF1.569842588919992
aF3.368907116053491
ag112
ag112
aF2.126978219022427
aF1.5672680977978943
aF3.3653116682265236
ag112
ag112
aF2.0314818902588945
aF1.5624722692535857
aF3.354737659083329
ag112
ag112
aF2.115384011654522
aF1.5669752118998057
aF3.3645521874884166
ag112
ag112
aF2.043367058289266
aF1.5637150227982937
aF3.358014366361451
ag112
ag112
atp129
ba(lp130
g15
(g16
(dp131
g18
g19
(g20
(I0
tp132
g22
tp133
Rp134
(I1
(I42
tp135
g29
I00
(lp136
g33
ag34
ag35
ag36
ag37
ag38
ag39
ag40
ag41
ag42
ag43
ag44
ag45
ag46
ag47
ag48
ag49
ag50
ag51
ag52
ag53
ag54
ag55
ag56
ag57
ag58
ag59
ag60
ag61
ag62
ag63
ag64
ag65
ag66
ag67
ag68
ag69
ag70
ag71
ag72
ag73
ag74
atp137
bsg76
Nstp138
Rp139
a(dp140
S'0.14.1'
p141
(dp142
S'axes'
p143
g14
sS'blocks'
p144
(lp145
(dp146
S'mgr_locs'
p147
c__builtin__
slice
p148
(I0
I42
I1
tp149
Rp150
sS'values'
p151
g97
sasstp152
bsb.