ccopy_reg
_reconstructor
p0
(cpandas.core.frame
DataFrame
p1
c__builtin__
object
p2
Ntp3
Rp4
(dp5
S'_metadata'
p6
(lp7
sS'_typ'
p8
S'dataframe'
p9
sS'_data'
p10
g0
(cpandas.core.internals
BlockManager
p11
g2
Ntp12
Rp13
((lp14
cpandas.core.indexes.base
_new_Index
p15
(cpandas.core.indexes.base
Index
p16
(dp17
S'data'
p18
cnumpy.core.multiarray
_reconstruct
p19
(cnumpy
ndarray
p20
(I0
tp21
S'b'
p22
tp23
Rp24
(I1
(I42
tp25
cnumpy
dtype
p26
(S'O8'
p27
I0
I1
tp28
Rp29
(I3
S'|'
p30
NNNI-1
I-1
I63
tp31
bI00
(lp32
S'year'
p33
aS'type'
p34
aS'procOriginal'
p35
aS'proc'
p36
aS'proc_s0'
p37
aS'cat'
p38
aS'inputWSFile'
p39
aS'nominalDataName'
p40
aS'modelWSFile'
p41
aS'model'
p42
aS'rate'
p43
aS'nominal_yield'
p44
aS'sumw2'
p45
aS'nominal_yield_COWCorr'
p46
aS'weight_trigger_sf_up_yield'
p47
aS'weight_trigger_sf_down_yield'
p48
aS'weight_puWeight_up_yield'
p49
aS'weight_puWeight_down_yield'
p50
aS'JER_up_yield'
p51
aS'JER_down_yield'
p52
aS'JES_up_yield'
p53
aS'JES_down_yield'
p54
aS'MET_JER_up_yield'
p55
aS'MET_JER_down_yield'
p56
aS'MET_JES_up_yield'
p57
aS'MET_JES_down_yield'
p58
aS'MET_Unclustered_up_yield'
p59
aS'MET_Unclustered_down_yield'
p60
aS'weight_btag_deepjet_sf_SelectedJet_jes_up_yield'
p61
aS'weight_btag_deepjet_sf_SelectedJet_jes_down_yield'
p62
aS'weight_btag_deepjet_sf_SelectedJet_lfstats1_up_yield'
p63
aS'weight_btag_deepjet_sf_SelectedJet_lfstats1_down_yield'
p64
aS'weight_btag_deepjet_sf_SelectedJet_lfstats2_up_yield'
p65
aS'weight_btag_deepjet_sf_SelectedJet_lfstats2_down_yield'
p66
aS'weight_btag_deepjet_sf_SelectedJet_hfstats1_up_yield'
p67
aS'weight_btag_deepjet_sf_SelectedJet_hfstats1_down_yield'
p68
aS'weight_btag_deepjet_sf_SelectedJet_hfstats2_up_yield'
p69
aS'weight_btag_deepjet_sf_SelectedJet_hfstats2_down_yield'
p70
aS'weight_btag_deepjet_sf_SelectedJet_cferr1_up_yield'
p71
aS'weight_btag_deepjet_sf_SelectedJet_cferr1_down_yield'
p72
aS'weight_btag_deepjet_sf_SelectedJet_cferr2_up_yield'
p73
aS'weight_btag_deepjet_sf_SelectedJet_cferr2_down_yield'
p74
atp75
bsS'name'
p76
Nstp77
Rp78
ag15
(cpandas.core.indexes.numeric
Int64Index
p79
(dp80
g18
g19
(g20
(I0
tp81
g22
tp82
Rp83
(I1
(I5
tp84
g26
(S'i8'
p85
I0
I1
tp86
Rp87
(I3
S'<'
p88
NNNI-1
I-1
I0
tp89
bI00
S'\x00\x00\x00\x00\x00\x00\x00\x00\x01\x00\x00\x00\x00\x00\x00\x00\x02\x00\x00\x00\x00\x00\x00\x00\x03\x00\x00\x00\x00\x00\x00\x00\x04\x00\x00\x00\x00\x00\x00\x00'
p90
tp91
bsg76
Nstp92
Rp93
a(lp94
g19
(g20
(I0
tp95
g22
tp96
Rp97
(I1
(I42
I5
tp98
g29
I00
(lp99
S'2016'
p100
aS'2017'
p101
aS'2018'
p102
aS'merged'
p103
ag103
aS'sig'
p104
ag104
ag104
aS'bkg'
p105
ag18
aS'NMSSMYggHbbMX600MY90'
p106
ag106
ag106
aS'bkg_mass'
p107
aS'data_obs'
p108
aS'NMSSMYggHbbMX600MY90_2016_hgg'
p109
aS'NMSSMYggHbbMX600MY90_2017_hgg'
p110
aS'NMSSMYggHbbMX600MY90_2018_hgg'
p111
ag107
ag108
ag106
ag106
ag106
aS'-'
p112
ag112
aS'SR2'
p113
ag113
ag113
ag113
ag113
aS'/home/users/fsetti/ambulance_bbgg_flashggFinalFit/CMSSW_10_2_13/src/flashggFinalFit/files/15Aug2022_bbgg_res//ws_signal_2016/output_NMSSMYggHbbMX600MY90_M90_13TeV_pythia8_NMSSMYggHbbMX600MY90.root'
p114
aS'/home/users/fsetti/ambulance_bbgg_flashggFinalFit/CMSSW_10_2_13/src/flashggFinalFit/files/15Aug2022_bbgg_res//ws_signal_2017/output_NMSSMYggHbbMX600MY90_M90_13TeV_pythia8_NMSSMYggHbbMX600MY90.root'
p115
aS'/home/users/fsetti/ambulance_bbgg_flashggFinalFit/CMSSW_10_2_13/src/flashggFinalFit/files/15Aug2022_bbgg_res//ws_signal_2018/output_NMSSMYggHbbMX600MY90_M90_13TeV_pythia8_NMSSMYggHbbMX600MY90.root'
p116
ag112
ag112
aS'NMSSMYggHbbMX600MY90_90_13TeV_SR2'
p117
aS'NMSSMYggHbbMX600MY90_90_13TeV_SR2'
p118
aS'NMSSMYggHbbMX600MY90_90_13TeV_SR2'
p119
ag112
ag112
aS'./Models/signal/CMS-HGG_sigfit_packaged_SR2.root'
p120
aS'./Models/signal/CMS-HGG_sigfit_packaged_SR2.root'
p121
aS'./Models/signal/CMS-HGG_sigfit_packaged_SR2.root'
p122
aS'./Models/background/CMS-HGG_multipdf_SR2.root'
p123
ag123
aS'wsig_13TeV:hggpdfsmrel_NMSSMYggHbbMX600MY90_2016_SR2_13TeV'
p124
aS'wsig_13TeV:hggpdfsmrel_NMSSMYggHbbMX600MY90_2017_SR2_13TeV'
p125
aS'wsig_13TeV:hggpdfsmrel_NMSSMYggHbbMX600MY90_2018_SR2_13TeV'
p126
aS'multipdf:CMS_hgg_SR2_13TeV_bkgshape'
p127
aS'multipdf:roohist_data_mass_SR2'
p128
aI1000
aI1000
aI1000
aF1.0
aI-1
aF2.4682942106445913
aF2.099802468135599
aF4.009034264145508
ag112
ag112
aF0.0010020977724849005
aF0.0008514561959662788
aF0.0025419291082357702
ag112
ag112
aF2.4682942106445913
aF2.099802468135599
aF4.009034264145508
ag112
ag112
aF2.483668591972049
aF2.1295218298406704
aF4.020265530082656
ag112
ag112
aF2.452934237849182
aF2.070140279671186
aF3.9978182267342155
ag112
ag112
aF2.453416332536787
aF2.0819586215254127
aF3.9684255760876757
ag112
ag112
aF2.4780467988798596
aF2.1124096755144124
aF4.038855389760058
ag112
ag112
aF2.471187195988727
aF2.1120569779258496
aF4.016672265619308
ag112
ag112
aF2.4788397111832907
aF2.1141301857064057
aF4.031587662955267
ag112
ag112
aF2.491267163969034
aF2.1419109144930655
aF4.038653564236993
ag112
ag112
aF2.451816076586061
aF2.0867785794263387
aF3.9759741393607295
ag112
ag112
aF2.476409675628662
aF2.1136271494942447
aF4.0229776191656
ag112
ag112
aF2.476409675628662
aF2.1136271494942447
aF4.0229776191656
ag112
ag112
aF2.476409675628662
aF2.1136271494942447
aF4.0229776191656
ag112
ag112
aF2.476409675628662
aF2.1136271494942447
aF4.0229776191656
ag112
ag112
aF2.476409675628662
aF2.1136271494942447
aF4.0229776191656
ag112
ag112
aF2.476409675628662
aF2.1136271494942447
aF4.0229776191656
ag112
ag112
aF2.4379179278415224
aF2.100049935938121
aF4.003964289248355
ag112
ag112
aF2.5012744919419045
aF2.1054600544563993
aF4.027822537037975
ag112
ag112
aF2.336303006907014
aF2.099834880952072
aF4.010699671372815
ag112
ag112
aF2.6138785634861885
aF2.099278351374637
aF4.0074854301858265
ag112
ag112
aF2.348012092554205
aF2.098316899509246
aF4.008164504631141
ag112
ag112
aF2.600421920826622
aF2.101045946303446
aF4.0101642650364715
ag112
ag112
aF2.591131214089537
aF2.090967009975725
aF3.9922752466586378
ag112
ag112
aF2.345412073693215
aF2.1084176016535374
aF4.025549453281105
ag112
ag112
aF2.4029404637273224
aF2.09418580043788
aF4.003590019476536
ag112
ag112
aF2.5299857101391097
aF2.1055590165493614
aF4.014580022033072
ag112
ag112
aF2.533295357112566
aF2.09880930804603
aF4.00616420417168
ag112
ag112
aF2.412314387919751
aF2.1013190364102377
aF4.01612668184693
ag112
ag112
aF2.5182811132223133
aF2.099365752971285
aF4.0065691089811395
ag112
ag112
aF2.4272956793043847
aF2.100354434060971
aF4.013612137080533
ag112
ag112
atp129
ba(lp130
g15
(g16
(dp131
g18
g19
(g20
(I0
tp132
g22
tp133
Rp134
(I1
(I42
tp135
g29
I00
(lp136
g33
ag34
ag35
ag36
ag37
ag38
ag39
ag40
ag41
ag42
ag43
ag44
ag45
ag46
ag47
ag48
ag49
ag50
ag51
ag52
ag53
ag54
ag55
ag56
ag57
ag58
ag59
ag60
ag61
ag62
ag63
ag64
ag65
ag66
ag67
ag68
ag69
ag70
ag71
ag72
ag73
ag74
atp137
bsg76
Nstp138
Rp139
a(dp140
S'0.14.1'
p141
(dp142
S'axes'
p143
g14
sS'blocks'
p144
(lp145
(dp146
S'mgr_locs'
p147
c__builtin__
slice
p148
(I0
I42
I1
tp149
Rp150
sS'values'
p151
g97
sasstp152
bsb.