ccopy_reg
_reconstructor
p0
(cpandas.core.frame
DataFrame
p1
c__builtin__
object
p2
Ntp3
Rp4
(dp5
S'_metadata'
p6
(lp7
sS'_typ'
p8
S'dataframe'
p9
sS'_data'
p10
g0
(cpandas.core.internals
BlockManager
p11
g2
Ntp12
Rp13
((lp14
cpandas.core.indexes.base
_new_Index
p15
(cpandas.core.indexes.base
Index
p16
(dp17
S'data'
p18
cnumpy.core.multiarray
_reconstruct
p19
(cnumpy
ndarray
p20
(I0
tp21
S'b'
p22
tp23
Rp24
(I1
(I42
tp25
cnumpy
dtype
p26
(S'O8'
p27
I0
I1
tp28
Rp29
(I3
S'|'
p30
NNNI-1
I-1
I63
tp31
bI00
(lp32
S'year'
p33
aS'type'
p34
aS'procOriginal'
p35
aS'proc'
p36
aS'proc_s0'
p37
aS'cat'
p38
aS'inputWSFile'
p39
aS'nominalDataName'
p40
aS'modelWSFile'
p41
aS'model'
p42
aS'rate'
p43
aS'nominal_yield'
p44
aS'sumw2'
p45
aS'nominal_yield_COWCorr'
p46
aS'weight_trigger_sf_up_yield'
p47
aS'weight_trigger_sf_down_yield'
p48
aS'weight_puWeight_up_yield'
p49
aS'weight_puWeight_down_yield'
p50
aS'JER_up_yield'
p51
aS'JER_down_yield'
p52
aS'JES_up_yield'
p53
aS'JES_down_yield'
p54
aS'MET_JER_up_yield'
p55
aS'MET_JER_down_yield'
p56
aS'MET_JES_up_yield'
p57
aS'MET_JES_down_yield'
p58
aS'MET_Unclustered_up_yield'
p59
aS'MET_Unclustered_down_yield'
p60
aS'weight_btag_deepjet_sf_SelectedJet_jes_up_yield'
p61
aS'weight_btag_deepjet_sf_SelectedJet_jes_down_yield'
p62
aS'weight_btag_deepjet_sf_SelectedJet_lfstats1_up_yield'
p63
aS'weight_btag_deepjet_sf_SelectedJet_lfstats1_down_yield'
p64
aS'weight_btag_deepjet_sf_SelectedJet_lfstats2_up_yield'
p65
aS'weight_btag_deepjet_sf_SelectedJet_lfstats2_down_yield'
p66
aS'weight_btag_deepjet_sf_SelectedJet_hfstats1_up_yield'
p67
aS'weight_btag_deepjet_sf_SelectedJet_hfstats1_down_yield'
p68
aS'weight_btag_deepjet_sf_SelectedJet_hfstats2_up_yield'
p69
aS'weight_btag_deepjet_sf_SelectedJet_hfstats2_down_yield'
p70
aS'weight_btag_deepjet_sf_SelectedJet_cferr1_up_yield'
p71
aS'weight_btag_deepjet_sf_SelectedJet_cferr1_down_yield'
p72
aS'weight_btag_deepjet_sf_SelectedJet_cferr2_up_yield'
p73
aS'weight_btag_deepjet_sf_SelectedJet_cferr2_down_yield'
p74
atp75
bsS'name'
p76
Nstp77
Rp78
ag15
(cpandas.core.indexes.numeric
Int64Index
p79
(dp80
g18
g19
(g20
(I0
tp81
g22
tp82
Rp83
(I1
(I5
tp84
g26
(S'i8'
p85
I0
I1
tp86
Rp87
(I3
S'<'
p88
NNNI-1
I-1
I0
tp89
bI00
S'\x00\x00\x00\x00\x00\x00\x00\x00\x01\x00\x00\x00\x00\x00\x00\x00\x02\x00\x00\x00\x00\x00\x00\x00\x03\x00\x00\x00\x00\x00\x00\x00\x04\x00\x00\x00\x00\x00\x00\x00'
p90
tp91
bsg76
Nstp92
Rp93
a(lp94
g19
(g20
(I0
tp95
g22
tp96
Rp97
(I1
(I42
I5
tp98
g29
I00
(lp99
S'2016'
p100
aS'2017'
p101
aS'2018'
p102
aS'merged'
p103
ag103
aS'sig'
p104
ag104
ag104
aS'bkg'
p105
ag18
aS'NMSSMYggHbbMX700MY100'
p106
ag106
ag106
aS'bkg_mass'
p107
aS'data_obs'
p108
aS'NMSSMYggHbbMX700MY100_2016_hgg'
p109
aS'NMSSMYggHbbMX700MY100_2017_hgg'
p110
aS'NMSSMYggHbbMX700MY100_2018_hgg'
p111
ag107
ag108
ag106
ag106
ag106
aS'-'
p112
ag112
aS'SR1'
p113
ag113
ag113
ag113
ag113
aS'/home/users/fsetti/flashggFinalFit_resonant/CMSSW_10_2_13/src/flashggFinalFit/files/21Sep2022_MY100//ws_signal_2016/output_NMSSMYggHbbMX700MY100_M100_13TeV_pythia8_NMSSMYggHbbMX700MY100.root'
p114
aS'/home/users/fsetti/flashggFinalFit_resonant/CMSSW_10_2_13/src/flashggFinalFit/files/21Sep2022_MY100//ws_signal_2017/output_NMSSMYggHbbMX700MY100_M100_13TeV_pythia8_NMSSMYggHbbMX700MY100.root'
p115
aS'/home/users/fsetti/flashggFinalFit_resonant/CMSSW_10_2_13/src/flashggFinalFit/files/21Sep2022_MY100//ws_signal_2018/output_NMSSMYggHbbMX700MY100_M100_13TeV_pythia8_NMSSMYggHbbMX700MY100.root'
p116
ag112
ag112
aS'NMSSMYggHbbMX700MY100_100_13TeV_SR1'
p117
aS'NMSSMYggHbbMX700MY100_100_13TeV_SR1'
p118
aS'NMSSMYggHbbMX700MY100_100_13TeV_SR1'
p119
ag112
ag112
aS'./Models/signal/CMS-HGG_sigfit_packaged_SR1.root'
p120
aS'./Models/signal/CMS-HGG_sigfit_packaged_SR1.root'
p121
aS'./Models/signal/CMS-HGG_sigfit_packaged_SR1.root'
p122
aS'./Models/background/CMS-HGG_multipdf_SR1.root'
p123
ag123
aS'wsig_13TeV:hggpdfsmrel_NMSSMYggHbbMX700MY100_2016_SR1_13TeV'
p124
aS'wsig_13TeV:hggpdfsmrel_NMSSMYggHbbMX700MY100_2017_SR1_13TeV'
p125
aS'wsig_13TeV:hggpdfsmrel_NMSSMYggHbbMX700MY100_2018_SR1_13TeV'
p126
aS'multipdf:CMS_hgg_SR1_13TeV_bkgshape'
p127
aS'multipdf:roohist_data_mass_SR1'
p128
aI1000
aI1000
aI1000
aF1.0
aI-1
aF6.440354314804444
aF11.716323456579527
aF18.9777691709497
ag112
ag112
aF0.0028298491162306364
aF0.004934700108797697
aF0.012080219209001493
ag112
ag112
aF6.440354314804444
aF11.716323456579527
aF18.9777691709497
ag112
ag112
aF6.481397328058186
aF11.878669667265102
aF19.029046824144938
ag112
ag112
aF6.399348569465739
aF11.55429357005738
aF18.92655820398111
ag112
ag112
aF6.409653392766532
aF11.639146090467648
aF18.86277936308259
ag112
ag112
aF6.460351542689441
aF11.772595085141532
aF19.062734939958077
ag112
ag112
aF6.4354011286144726
aF11.70188799422571
aF18.941078757232813
ag112
ag112
aF6.440028794600463
aF11.736685160638752
aF19.02216098754388
ag112
ag112
aF6.416041591255753
aF11.770684951830791
aF18.917728843372384
ag112
ag112
aF6.4358854515143955
aF11.667140680188442
aF19.027012505464377
ag112
ag112
aF6.440007236573395
aF11.715783383597554
aF18.976958658584273
ag112
ag112
aF6.440007236573395
aF11.715783383597554
aF18.976958658584273
ag112
ag112
aF6.440007236573395
aF11.715783383597554
aF18.976958658584273
ag112
ag112
aF6.440007236573395
aF11.715783383597554
aF18.976958658584273
ag112
ag112
aF6.440007236573395
aF11.715783383597554
aF18.976958658584273
ag112
ag112
aF6.440007236573395
aF11.715783383597554
aF18.976958658584273
ag112
ag112
aF6.3664405407116975
aF11.715309213635289
aF18.93115697698358
ag112
ag112
aF6.525070406120738
aF11.745646041440478
aF19.07318322066283
ag112
ag112
aF6.111398095356045
aF11.717826545079554
aF18.987805939382003
ag112
ag112
aF6.802432239787611
aF11.713098653785421
aF18.967932443463734
ag112
ag112
aF6.141846150444884
aF11.714176060519957
aF18.978877968268428
ag112
ag112
aF6.767368630598099
aF11.717458880057228
aF18.97785993825696
ag112
ag112
aF6.761518499976942
aF11.685718648527283
aF18.875807570705014
ag112
ag112
aF6.120166710570279
aF11.745683716418853
aF19.078727406991984
ag112
ag112
aF6.259308332384854
aF11.67781750087972
aF18.946372060089537
ag112
ag112
aF6.6133349841923
aF11.755632318195286
aF19.00968149034642
ag112
ag112
aF6.592765875238296
aF11.721566817029922
aF18.981338689825765
ag112
ag112
aF6.30464476223389
aF11.706629756930683
aF18.97703783669066
ag112
ag112
aF6.558096778339074
aF11.721837977482524
aF18.98059219830421
ag112
ag112
aF6.339714974096189
aF11.708242037324395
aF18.9762793052043
ag112
ag112
atp129
ba(lp130
g15
(g16
(dp131
g18
g19
(g20
(I0
tp132
g22
tp133
Rp134
(I1
(I42
tp135
g29
I00
(lp136
g33
ag34
ag35
ag36
ag37
ag38
ag39
ag40
ag41
ag42
ag43
ag44
ag45
ag46
ag47
ag48
ag49
ag50
ag51
ag52
ag53
ag54
ag55
ag56
ag57
ag58
ag59
ag60
ag61
ag62
ag63
ag64
ag65
ag66
ag67
ag68
ag69
ag70
ag71
ag72
ag73
ag74
atp137
bsg76
Nstp138
Rp139
a(dp140
S'0.14.1'
p141
(dp142
S'axes'
p143
g14
sS'blocks'
p144
(lp145
(dp146
S'mgr_locs'
p147
c__builtin__
slice
p148
(I0
I42
I1
tp149
Rp150
sS'values'
p151
g97
sasstp152
bsb.