ccopy_reg
_reconstructor
p0
(cpandas.core.frame
DataFrame
p1
c__builtin__
object
p2
Ntp3
Rp4
(dp5
S'_metadata'
p6
(lp7
sS'_typ'
p8
S'dataframe'
p9
sS'_data'
p10
g0
(cpandas.core.internals
BlockManager
p11
g2
Ntp12
Rp13
((lp14
cpandas.core.indexes.base
_new_Index
p15
(cpandas.core.indexes.base
Index
p16
(dp17
S'data'
p18
cnumpy.core.multiarray
_reconstruct
p19
(cnumpy
ndarray
p20
(I0
tp21
S'b'
p22
tp23
Rp24
(I1
(I42
tp25
cnumpy
dtype
p26
(S'O8'
p27
I0
I1
tp28
Rp29
(I3
S'|'
p30
NNNI-1
I-1
I63
tp31
bI00
(lp32
S'year'
p33
aS'type'
p34
aS'procOriginal'
p35
aS'proc'
p36
aS'proc_s0'
p37
aS'cat'
p38
aS'inputWSFile'
p39
aS'nominalDataName'
p40
aS'modelWSFile'
p41
aS'model'
p42
aS'rate'
p43
aS'nominal_yield'
p44
aS'sumw2'
p45
aS'nominal_yield_COWCorr'
p46
aS'weight_trigger_sf_up_yield'
p47
aS'weight_trigger_sf_down_yield'
p48
aS'weight_puWeight_up_yield'
p49
aS'weight_puWeight_down_yield'
p50
aS'JER_up_yield'
p51
aS'JER_down_yield'
p52
aS'JES_up_yield'
p53
aS'JES_down_yield'
p54
aS'MET_JER_up_yield'
p55
aS'MET_JER_down_yield'
p56
aS'MET_JES_up_yield'
p57
aS'MET_JES_down_yield'
p58
aS'MET_Unclustered_up_yield'
p59
aS'MET_Unclustered_down_yield'
p60
aS'weight_btag_deepjet_sf_SelectedJet_jes_up_yield'
p61
aS'weight_btag_deepjet_sf_SelectedJet_jes_down_yield'
p62
aS'weight_btag_deepjet_sf_SelectedJet_lfstats1_up_yield'
p63
aS'weight_btag_deepjet_sf_SelectedJet_lfstats1_down_yield'
p64
aS'weight_btag_deepjet_sf_SelectedJet_lfstats2_up_yield'
p65
aS'weight_btag_deepjet_sf_SelectedJet_lfstats2_down_yield'
p66
aS'weight_btag_deepjet_sf_SelectedJet_hfstats1_up_yield'
p67
aS'weight_btag_deepjet_sf_SelectedJet_hfstats1_down_yield'
p68
aS'weight_btag_deepjet_sf_SelectedJet_hfstats2_up_yield'
p69
aS'weight_btag_deepjet_sf_SelectedJet_hfstats2_down_yield'
p70
aS'weight_btag_deepjet_sf_SelectedJet_cferr1_up_yield'
p71
aS'weight_btag_deepjet_sf_SelectedJet_cferr1_down_yield'
p72
aS'weight_btag_deepjet_sf_SelectedJet_cferr2_up_yield'
p73
aS'weight_btag_deepjet_sf_SelectedJet_cferr2_down_yield'
p74
atp75
bsS'name'
p76
Nstp77
Rp78
ag15
(cpandas.core.indexes.numeric
Int64Index
p79
(dp80
g18
g19
(g20
(I0
tp81
g22
tp82
Rp83
(I1
(I5
tp84
g26
(S'i8'
p85
I0
I1
tp86
Rp87
(I3
S'<'
p88
NNNI-1
I-1
I0
tp89
bI00
S'\x00\x00\x00\x00\x00\x00\x00\x00\x01\x00\x00\x00\x00\x00\x00\x00\x02\x00\x00\x00\x00\x00\x00\x00\x03\x00\x00\x00\x00\x00\x00\x00\x04\x00\x00\x00\x00\x00\x00\x00'
p90
tp91
bsg76
Nstp92
Rp93
a(lp94
g19
(g20
(I0
tp95
g22
tp96
Rp97
(I1
(I42
I5
tp98
g29
I00
(lp99
S'2016'
p100
aS'2017'
p101
aS'2018'
p102
aS'merged'
p103
ag103
aS'sig'
p104
ag104
ag104
aS'bkg'
p105
ag18
aS'NMSSMYggHbbMX700MY100'
p106
ag106
ag106
aS'bkg_mass'
p107
aS'data_obs'
p108
aS'NMSSMYggHbbMX700MY100_2016_hgg'
p109
aS'NMSSMYggHbbMX700MY100_2017_hgg'
p110
aS'NMSSMYggHbbMX700MY100_2018_hgg'
p111
ag107
ag108
ag106
ag106
ag106
aS'-'
p112
ag112
aS'SR2'
p113
ag113
ag113
ag113
ag113
aS'/home/users/fsetti/flashggFinalFit_resonant/CMSSW_10_2_13/src/flashggFinalFit/files/21Sep2022_MY100//ws_signal_2016/output_NMSSMYggHbbMX700MY100_M100_13TeV_pythia8_NMSSMYggHbbMX700MY100.root'
p114
aS'/home/users/fsetti/flashggFinalFit_resonant/CMSSW_10_2_13/src/flashggFinalFit/files/21Sep2022_MY100//ws_signal_2017/output_NMSSMYggHbbMX700MY100_M100_13TeV_pythia8_NMSSMYggHbbMX700MY100.root'
p115
aS'/home/users/fsetti/flashggFinalFit_resonant/CMSSW_10_2_13/src/flashggFinalFit/files/21Sep2022_MY100//ws_signal_2018/output_NMSSMYggHbbMX700MY100_M100_13TeV_pythia8_NMSSMYggHbbMX700MY100.root'
p116
ag112
ag112
aS'NMSSMYggHbbMX700MY100_100_13TeV_SR2'
p117
aS'NMSSMYggHbbMX700MY100_100_13TeV_SR2'
p118
aS'NMSSMYggHbbMX700MY100_100_13TeV_SR2'
p119
ag112
ag112
aS'./Models/signal/CMS-HGG_sigfit_packaged_SR2.root'
p120
aS'./Models/signal/CMS-HGG_sigfit_packaged_SR2.root'
p121
aS'./Models/signal/CMS-HGG_sigfit_packaged_SR2.root'
p122
aS'./Models/background/CMS-HGG_multipdf_SR2.root'
p123
ag123
aS'wsig_13TeV:hggpdfsmrel_NMSSMYggHbbMX700MY100_2016_SR2_13TeV'
p124
aS'wsig_13TeV:hggpdfsmrel_NMSSMYggHbbMX700MY100_2017_SR2_13TeV'
p125
aS'wsig_13TeV:hggpdfsmrel_NMSSMYggHbbMX700MY100_2018_SR2_13TeV'
p126
aS'multipdf:CMS_hgg_SR2_13TeV_bkgshape'
p127
aS'multipdf:roohist_data_mass_SR2'
p128
aI1000
aI1000
aI1000
aF1.0
aI-1
aF2.3179919267981592
aF3.934621837453004
aF6.039253094087879
ag112
ag112
aF0.0011826015387302192
aF0.0019422901650795019
aF0.004447840287508417
ag112
ag112
aF2.3179919267981592
aF3.934621837453004
aF6.039253094087879
ag112
ag112
aF2.3345232055470864
aF3.9903983340258966
aF6.056609631704637
ag112
ag112
aF2.301479448076702
aF3.8789548271968233
aF6.021920834871066
ag112
ag112
aF2.328099539265578
aF3.955512295492223
aF6.043976288573292
ag112
ag112
aF2.3034797117268626
aF3.9153938092954146
aF6.027546569623444
ag112
ag112
aF2.3291346809530635
aF3.9438106776978814
aF6.06248309281076
ag112
ag112
aF2.3096821689171203
aF3.909587976401606
aF6.010266472921683
ag112
ag112
aF2.386179922423628
aF3.9591055806087714
aF6.19498065940869
ag112
ag112
aF2.2803120079327956
aF3.896298887999863
aF5.880126915424328
ag112
ag112
aF2.318228424373109
aF3.935585534902717
aF6.040063606453308
ag112
ag112
aF2.318228424373109
aF3.935585534902717
aF6.040063606453308
ag112
ag112
aF2.318228424373109
aF3.935585534902717
aF6.040063606453308
ag112
ag112
aF2.318228424373109
aF3.935585534902717
aF6.040063606453308
ag112
ag112
aF2.318228424373109
aF3.935585534902717
aF6.040063606453308
ag112
ag112
aF2.318228424373109
aF3.935585534902717
aF6.040063606453308
ag112
ag112
aF2.2968538221588335
aF3.9352025960339927
aF6.033949511103957
ag112
ag112
aF2.3486523468210114
aF3.9457743258908815
aF6.065981804317412
ag112
ag112
aF2.168699900618498
aF3.9350660537255027
aF6.042777115079943
ag112
ag112
aF2.482832885245636
aF3.9326219459392084
aF6.035692939603455
ag112
ag112
aF2.1787656616363797
aF3.928207261902948
aF6.033473270024482
ag112
ag112
aF2.4716450313689307
aF3.940347418260664
aF6.045770872171066
ag112
ag112
aF2.4775278670321415
aF4.011102618866344
aF6.099600560860274
ag112
ag112
aF2.1662105962529394
aF3.859448485981609
aF5.979434470120732
ag112
ag112
aF2.262565860877865
aF3.9334915162790884
aF6.033543325488435
ag112
ag112
aF2.3708258410837844
aF3.9356253063495292
aF6.044964580086584
ag112
ag112
aF2.38700642082325
aF3.9294465829651104
aF6.020926470606356
ag112
ag112
aF2.2582575904647926
aF3.945257629078563
aF6.076070102523955
ag112
ag112
aF2.3707722793113666
aF3.9316179539783027
aF6.024078492688093
ag112
ag112
aF2.2740837408252927
aF3.939300704549913
aF6.062961123654574
ag112
ag112
atp129
ba(lp130
g15
(g16
(dp131
g18
g19
(g20
(I0
tp132
g22
tp133
Rp134
(I1
(I42
tp135
g29
I00
(lp136
g33
ag34
ag35
ag36
ag37
ag38
ag39
ag40
ag41
ag42
ag43
ag44
ag45
ag46
ag47
ag48
ag49
ag50
ag51
ag52
ag53
ag54
ag55
ag56
ag57
ag58
ag59
ag60
ag61
ag62
ag63
ag64
ag65
ag66
ag67
ag68
ag69
ag70
ag71
ag72
ag73
ag74
atp137
bsg76
Nstp138
Rp139
a(dp140
S'0.14.1'
p141
(dp142
S'axes'
p143
g14
sS'blocks'
p144
(lp145
(dp146
S'mgr_locs'
p147
c__builtin__
slice
p148
(I0
I42
I1
tp149
Rp150
sS'values'
p151
g97
sasstp152
bsb.