ccopy_reg
_reconstructor
p0
(cpandas.core.frame
DataFrame
p1
c__builtin__
object
p2
Ntp3
Rp4
(dp5
S'_metadata'
p6
(lp7
sS'_typ'
p8
S'dataframe'
p9
sS'_data'
p10
g0
(cpandas.core.internals
BlockManager
p11
g2
Ntp12
Rp13
((lp14
cpandas.core.indexes.base
_new_Index
p15
(cpandas.core.indexes.base
Index
p16
(dp17
S'data'
p18
cnumpy.core.multiarray
_reconstruct
p19
(cnumpy
ndarray
p20
(I0
tp21
S'b'
p22
tp23
Rp24
(I1
(I42
tp25
cnumpy
dtype
p26
(S'O8'
p27
I0
I1
tp28
Rp29
(I3
S'|'
p30
NNNI-1
I-1
I63
tp31
bI00
(lp32
S'year'
p33
aS'type'
p34
aS'procOriginal'
p35
aS'proc'
p36
aS'proc_s0'
p37
aS'cat'
p38
aS'inputWSFile'
p39
aS'nominalDataName'
p40
aS'modelWSFile'
p41
aS'model'
p42
aS'rate'
p43
aS'nominal_yield'
p44
aS'sumw2'
p45
aS'nominal_yield_COWCorr'
p46
aS'weight_trigger_sf_up_yield'
p47
aS'weight_trigger_sf_down_yield'
p48
aS'weight_puWeight_up_yield'
p49
aS'weight_puWeight_down_yield'
p50
aS'JER_up_yield'
p51
aS'JER_down_yield'
p52
aS'JES_up_yield'
p53
aS'JES_down_yield'
p54
aS'MET_JER_up_yield'
p55
aS'MET_JER_down_yield'
p56
aS'MET_JES_up_yield'
p57
aS'MET_JES_down_yield'
p58
aS'MET_Unclustered_up_yield'
p59
aS'MET_Unclustered_down_yield'
p60
aS'weight_btag_deepjet_sf_SelectedJet_jes_up_yield'
p61
aS'weight_btag_deepjet_sf_SelectedJet_jes_down_yield'
p62
aS'weight_btag_deepjet_sf_SelectedJet_lfstats1_up_yield'
p63
aS'weight_btag_deepjet_sf_SelectedJet_lfstats1_down_yield'
p64
aS'weight_btag_deepjet_sf_SelectedJet_lfstats2_up_yield'
p65
aS'weight_btag_deepjet_sf_SelectedJet_lfstats2_down_yield'
p66
aS'weight_btag_deepjet_sf_SelectedJet_hfstats1_up_yield'
p67
aS'weight_btag_deepjet_sf_SelectedJet_hfstats1_down_yield'
p68
aS'weight_btag_deepjet_sf_SelectedJet_hfstats2_up_yield'
p69
aS'weight_btag_deepjet_sf_SelectedJet_hfstats2_down_yield'
p70
aS'weight_btag_deepjet_sf_SelectedJet_cferr1_up_yield'
p71
aS'weight_btag_deepjet_sf_SelectedJet_cferr1_down_yield'
p72
aS'weight_btag_deepjet_sf_SelectedJet_cferr2_up_yield'
p73
aS'weight_btag_deepjet_sf_SelectedJet_cferr2_down_yield'
p74
atp75
bsS'name'
p76
Nstp77
Rp78
ag15
(cpandas.core.indexes.numeric
Int64Index
p79
(dp80
g18
g19
(g20
(I0
tp81
g22
tp82
Rp83
(I1
(I5
tp84
g26
(S'i8'
p85
I0
I1
tp86
Rp87
(I3
S'<'
p88
NNNI-1
I-1
I0
tp89
bI00
S'\x00\x00\x00\x00\x00\x00\x00\x00\x01\x00\x00\x00\x00\x00\x00\x00\x02\x00\x00\x00\x00\x00\x00\x00\x03\x00\x00\x00\x00\x00\x00\x00\x04\x00\x00\x00\x00\x00\x00\x00'
p90
tp91
bsg76
Nstp92
Rp93
a(lp94
g19
(g20
(I0
tp95
g22
tp96
Rp97
(I1
(I42
I5
tp98
g29
I00
(lp99
S'2016'
p100
aS'2017'
p101
aS'2018'
p102
aS'merged'
p103
ag103
aS'sig'
p104
ag104
ag104
aS'bkg'
p105
ag18
aS'NMSSMYggHbbMX700MY95'
p106
ag106
ag106
aS'bkg_mass'
p107
aS'data_obs'
p108
aS'NMSSMYggHbbMX700MY95_2016_hgg'
p109
aS'NMSSMYggHbbMX700MY95_2017_hgg'
p110
aS'NMSSMYggHbbMX700MY95_2018_hgg'
p111
ag107
ag108
ag106
ag106
ag106
aS'-'
p112
ag112
aS'SR1'
p113
ag113
ag113
ag113
ag113
aS'/home/users/fsetti/flashggFinalFit_resonant/CMSSW_10_2_13/src/flashggFinalFit/files/21Sep2022_MY95//ws_signal_2016/output_NMSSMYggHbbMX700MY95_M95_13TeV_pythia8_NMSSMYggHbbMX700MY95.root'
p114
aS'/home/users/fsetti/flashggFinalFit_resonant/CMSSW_10_2_13/src/flashggFinalFit/files/21Sep2022_MY95//ws_signal_2017/output_NMSSMYggHbbMX700MY95_M95_13TeV_pythia8_NMSSMYggHbbMX700MY95.root'
p115
aS'/home/users/fsetti/flashggFinalFit_resonant/CMSSW_10_2_13/src/flashggFinalFit/files/21Sep2022_MY95//ws_signal_2018/output_NMSSMYggHbbMX700MY95_M95_13TeV_pythia8_NMSSMYggHbbMX700MY95.root'
p116
ag112
ag112
aS'NMSSMYggHbbMX700MY95_95_13TeV_SR1'
p117
aS'NMSSMYggHbbMX700MY95_95_13TeV_SR1'
p118
aS'NMSSMYggHbbMX700MY95_95_13TeV_SR1'
p119
ag112
ag112
aS'./Models/signal/CMS-HGG_sigfit_packaged_SR1.root'
p120
aS'./Models/signal/CMS-HGG_sigfit_packaged_SR1.root'
p121
aS'./Models/signal/CMS-HGG_sigfit_packaged_SR1.root'
p122
aS'./Models/background/CMS-HGG_multipdf_SR1.root'
p123
ag123
aS'wsig_13TeV:hggpdfsmrel_NMSSMYggHbbMX700MY95_2016_SR1_13TeV'
p124
aS'wsig_13TeV:hggpdfsmrel_NMSSMYggHbbMX700MY95_2017_SR1_13TeV'
p125
aS'wsig_13TeV:hggpdfsmrel_NMSSMYggHbbMX700MY95_2018_SR1_13TeV'
p126
aS'multipdf:CMS_hgg_SR1_13TeV_bkgshape'
p127
aS'multipdf:roohist_data_mass_SR1'
p128
aI1000
aI1000
aI1000
aF1.0
aI-1
aF6.703774230526267
aF12.216915614858184
aF19.624784775629912
ag112
ag112
aF0.002943870206309986
aF0.00509103855144745
aF0.012496305893114554
ag112
ag112
aF6.703774230526267
aF12.216915614858184
aF19.624784775629912
ag112
ag112
aF6.746749074435163
aF12.38666079696287
aF19.67772450511006
ag112
ag112
aF6.6608403853508475
aF12.047501943423852
aF19.571914177869086
ag112
ag112
aF6.660573984977996
aF12.128056361218679
aF19.52113229007854
ag112
ag112
aF6.7354037397766495
aF12.280270326475778
aF19.70312125081261
ag112
ag112
aF6.699025805469964
aF12.179068411450132
aF19.611421826357024
ag112
ag112
aF6.7039884158918275
aF12.225163940566215
aF19.654299664216357
ag112
ag112
aF6.700708140387417
aF12.275812624946846
aF19.601252485252818
ag112
ag112
aF6.7019936186194276
aF12.136496930964343
aF19.64735798970858
ag112
ag112
aF6.703698720724279
aF12.2169156148582
aF19.62316132163656
ag112
ag112
aF6.703698720724279
aF12.2169156148582
aF19.62316132163656
ag112
ag112
aF6.703698720724279
aF12.2169156148582
aF19.62316132163656
ag112
ag112
aF6.703698720724279
aF12.2169156148582
aF19.62316132163656
ag112
ag112
aF6.703698720724279
aF12.2169156148582
aF19.62316132163656
ag112
ag112
aF6.703698720724279
aF12.2169156148582
aF19.62316132163656
ag112
ag112
aF6.6243431330881855
aF12.21668922482751
aF19.58419434437892
ag112
ag112
aF6.796886084721627
aF12.248332300919813
aF19.720801541694208
ag112
ag112
aF6.361257869691348
aF12.217360335063576
aF19.633168951138913
ag112
ag112
aF7.081007581297426
aF12.214737865879234
aF19.61739212628176
ag112
ag112
aF6.392816417189219
aF12.21252291447666
aF19.623545853103423
ag112
ag112
aF7.044880164446132
aF12.22014127088814
aF19.627766888077314
ag112
ag112
aF7.042482566747357
aF12.189725954027583
aF19.520884016915865
ag112
ag112
aF6.366512271690289
aF12.243010935183845
aF19.72763863219209
ag112
ag112
aF6.515982201082354
aF12.174929173840326
aF19.595027387519803
ag112
ag112
aF6.883203276535472
aF12.259704259706115
aF19.655065766986034
ag112
ag112
aF6.85833866379807
aF12.218809285824157
aF19.624461963135072
ag112
ag112
aF6.568483643456958
aF12.214427232028386
aF19.629526700760263
ag112
ag112
aF6.824256652160547
aF12.21991061180148
aF19.625311017630903
ag112
ag112
aF6.601773352634412
aF12.212583145622395
aF19.625898098283027
ag112
ag112
atp129
ba(lp130
g15
(g16
(dp131
g18
g19
(g20
(I0
tp132
g22
tp133
Rp134
(I1
(I42
tp135
g29
I00
(lp136
g33
ag34
ag35
ag36
ag37
ag38
ag39
ag40
ag41
ag42
ag43
ag44
ag45
ag46
ag47
ag48
ag49
ag50
ag51
ag52
ag53
ag54
ag55
ag56
ag57
ag58
ag59
ag60
ag61
ag62
ag63
ag64
ag65
ag66
ag67
ag68
ag69
ag70
ag71
ag72
ag73
ag74
atp137
bsg76
Nstp138
Rp139
a(dp140
S'0.14.1'
p141
(dp142
S'axes'
p143
g14
sS'blocks'
p144
(lp145
(dp146
S'mgr_locs'
p147
c__builtin__
slice
p148
(I0
I42
I1
tp149
Rp150
sS'values'
p151
g97
sasstp152
bsb.