ccopy_reg
_reconstructor
p0
(cpandas.core.frame
DataFrame
p1
c__builtin__
object
p2
Ntp3
Rp4
(dp5
S'_metadata'
p6
(lp7
sS'_typ'
p8
S'dataframe'
p9
sS'_data'
p10
g0
(cpandas.core.internals
BlockManager
p11
g2
Ntp12
Rp13
((lp14
cpandas.core.indexes.base
_new_Index
p15
(cpandas.core.indexes.base
Index
p16
(dp17
S'data'
p18
cnumpy.core.multiarray
_reconstruct
p19
(cnumpy
ndarray
p20
(I0
tp21
S'b'
p22
tp23
Rp24
(I1
(I56
tp25
cnumpy
dtype
p26
(S'O8'
p27
I0
I1
tp28
Rp29
(I3
S'|'
p30
NNNI-1
I-1
I63
tp31
bI00
(lp32
S'year'
p33
aS'type'
p34
aS'procOriginal'
p35
aS'proc'
p36
aS'proc_s0'
p37
aS'cat'
p38
aS'inputWSFile'
p39
aS'nominalDataName'
p40
aS'modelWSFile'
p41
aS'model'
p42
aS'rate'
p43
aS'nominal_yield'
p44
aS'sumw2'
p45
aS'nominal_yield_COWCorr'
p46
aS'weight_electron_veto_sf_Diphoton_Photon_up_yield'
p47
aS'weight_electron_veto_sf_Diphoton_Photon_down_yield'
p48
aS'weight_electron_id_sf_SelectedElectron_up_yield'
p49
aS'weight_electron_id_sf_SelectedElectron_down_yield'
p50
aS'weight_muon_id_sfSTAT_SelectedMuon_up_yield'
p51
aS'weight_muon_id_sfSTAT_SelectedMuon_down_yield'
p52
aS'weight_muon_id_sfSYS_SelectedMuon_up_yield'
p53
aS'weight_muon_id_sfSYS_SelectedMuon_down_yield'
p54
aS'weight_muon_iso_sfSTAT_SelectedMuon_up_yield'
p55
aS'weight_muon_iso_sfSTAT_SelectedMuon_down_yield'
p56
aS'weight_muon_iso_sfSYS_SelectedMuon_up_yield'
p57
aS'weight_muon_iso_sfSYS_SelectedMuon_down_yield'
p58
aS'weight_trigger_sf_up_yield'
p59
aS'weight_trigger_sf_down_yield'
p60
aS'JER_up_yield'
p61
aS'JER_down_yield'
p62
aS'JES_up_yield'
p63
aS'JES_down_yield'
p64
aS'MET_JER_up_yield'
p65
aS'MET_JER_down_yield'
p66
aS'MET_JES_up_yield'
p67
aS'MET_JES_down_yield'
p68
aS'MET_Unclustered_up_yield'
p69
aS'MET_Unclustered_down_yield'
p70
aS'Muon_pt_up_yield'
p71
aS'Muon_pt_down_yield'
p72
aS'Tau_pt_up_yield'
p73
aS'Tau_pt_down_yield'
p74
aS'weight_btag_deepjet_sf_SelectedJet_jes_up_yield'
p75
aS'weight_btag_deepjet_sf_SelectedJet_jes_down_yield'
p76
aS'weight_btag_deepjet_sf_SelectedJet_lfstats1_up_yield'
p77
aS'weight_btag_deepjet_sf_SelectedJet_lfstats1_down_yield'
p78
aS'weight_btag_deepjet_sf_SelectedJet_lfstats2_up_yield'
p79
aS'weight_btag_deepjet_sf_SelectedJet_lfstats2_down_yield'
p80
aS'weight_btag_deepjet_sf_SelectedJet_hfstats1_up_yield'
p81
aS'weight_btag_deepjet_sf_SelectedJet_hfstats1_down_yield'
p82
aS'weight_btag_deepjet_sf_SelectedJet_hfstats2_up_yield'
p83
aS'weight_btag_deepjet_sf_SelectedJet_hfstats2_down_yield'
p84
aS'weight_btag_deepjet_sf_SelectedJet_cferr1_up_yield'
p85
aS'weight_btag_deepjet_sf_SelectedJet_cferr1_down_yield'
p86
aS'weight_btag_deepjet_sf_SelectedJet_cferr2_up_yield'
p87
aS'weight_btag_deepjet_sf_SelectedJet_cferr2_down_yield'
p88
atp89
bsS'name'
p90
Nstp91
Rp92
ag15
(cpandas.core.indexes.numeric
Int64Index
p93
(dp94
g18
g19
(g20
(I0
tp95
g22
tp96
Rp97
(I1
(I23
tp98
g26
(S'i8'
p99
I0
I1
tp100
Rp101
(I3
S'<'
p102
NNNI-1
I-1
I0
tp103
bI00
S'\x00\x00\x00\x00\x00\x00\x00\x00\x01\x00\x00\x00\x00\x00\x00\x00\x02\x00\x00\x00\x00\x00\x00\x00\x03\x00\x00\x00\x00\x00\x00\x00\x04\x00\x00\x00\x00\x00\x00\x00\x05\x00\x00\x00\x00\x00\x00\x00\x06\x00\x00\x00\x00\x00\x00\x00\x07\x00\x00\x00\x00\x00\x00\x00\x08\x00\x00\x00\x00\x00\x00\x00\t\x00\x00\x00\x00\x00\x00\x00\n\x00\x00\x00\x00\x00\x00\x00\x0b\x00\x00\x00\x00\x00\x00\x00\x0c\x00\x00\x00\x00\x00\x00\x00\r\x00\x00\x00\x00\x00\x00\x00\x0e\x00\x00\x00\x00\x00\x00\x00\x0f\x00\x00\x00\x00\x00\x00\x00\x10\x00\x00\x00\x00\x00\x00\x00\x11\x00\x00\x00\x00\x00\x00\x00\x12\x00\x00\x00\x00\x00\x00\x00\x13\x00\x00\x00\x00\x00\x00\x00\x14\x00\x00\x00\x00\x00\x00\x00\x15\x00\x00\x00\x00\x00\x00\x00\x16\x00\x00\x00\x00\x00\x00\x00'
p104
tp105
bsg90
Nstp106
Rp107
a(lp108
g19
(g20
(I0
tp109
g22
tp110
Rp111
(I1
(I56
I23
tp112
g29
I00
(lp113
S'2016'
p114
ag114
ag114
ag114
ag114
ag114
ag114
aS'2017'
p115
ag115
ag115
ag115
ag115
ag115
ag115
aS'2018'
p116
ag116
ag116
ag116
ag116
ag116
ag116
aS'merged'
p117
ag117
aS'sig'
p118
ag118
ag118
ag118
ag118
ag118
ag118
ag118
ag118
ag118
ag118
ag118
ag118
ag118
ag118
ag118
ag118
ag118
ag118
ag118
ag118
aS'bkg'
p119
ag18
aS'HHggTauTau'
p120
aS'HHggWWdileptonic'
p121
aS'HHggWWsemileptonic'
p122
aS'VBFH'
p123
aS'VH'
p124
aS'ggH'
p125
aS'ttH'
p126
ag120
ag121
ag122
ag123
ag124
ag125
ag126
ag120
ag121
ag122
ag123
ag124
ag125
ag126
aS'bkg_mass'
p127
aS'data_obs'
p128
aS'HHggTauTau_2016_hgg'
p129
aS'HHggWWdileptonic_2016_hgg'
p130
aS'HHggWWsemileptonic_2016_hgg'
p131
aS'VBFH_2016_hgg'
p132
aS'VH_2016_hgg'
p133
aS'ggH_2016_hgg'
p134
aS'ttH_2016_hgg'
p135
aS'HHggTauTau_2017_hgg'
p136
aS'HHggWWdileptonic_2017_hgg'
p137
aS'HHggWWsemileptonic_2017_hgg'
p138
aS'VBFH_2017_hgg'
p139
aS'VH_2017_hgg'
p140
aS'ggH_2017_hgg'
p141
aS'ttH_2017_hgg'
p142
aS'HHggTauTau_2018_hgg'
p143
aS'HHggWWdileptonic_2018_hgg'
p144
aS'HHggWWsemileptonic_2018_hgg'
p145
aS'VBFH_2018_hgg'
p146
aS'VH_2018_hgg'
p147
aS'ggH_2018_hgg'
p148
aS'ttH_2018_hgg'
p149
ag127
ag128
ag120
ag121
ag122
ag123
ag124
ag125
ag126
ag120
ag121
ag122
ag123
ag124
ag125
ag126
ag120
ag121
ag122
ag123
ag124
ag125
ag126
aS'-'
p150
ag150
aS'SR2'
p151
ag151
ag151
ag151
ag151
ag151
ag151
ag151
ag151
ag151
ag151
ag151
ag151
ag151
ag151
ag151
ag151
ag151
ag151
ag151
ag151
ag151
ag151
aS'/home/users/fsetti/ic_flashgg/CMSSW_10_2_13/src/flashggFinalFit/files_systs/11May2022//ws_signal_2016/output_HHggTauTau_M125_13TeV_pythia8_HHggTauTau.root'
p152
aS'/home/users/fsetti/ic_flashgg/CMSSW_10_2_13/src/flashggFinalFit/files_systs/11May2022//ws_signal_2016/output_HHggWWdileptonic_M125_13TeV_pythia8_HHggWWdileptonic.root'
p153
aS'/home/users/fsetti/ic_flashgg/CMSSW_10_2_13/src/flashggFinalFit/files_systs/11May2022//ws_signal_2016/output_HHggWWsemileptonic_M125_13TeV_pythia8_HHggWWsemileptonic.root'
p154
aS'/home/users/fsetti/ic_flashgg/CMSSW_10_2_13/src/flashggFinalFit/files_systs/11May2022//ws_signal_2016/output_VBFH_M125_13TeV_pythia8_VBFH.root'
p155
aS'/home/users/fsetti/ic_flashgg/CMSSW_10_2_13/src/flashggFinalFit/files_systs/11May2022//ws_signal_2016/output_VH_M125_13TeV_pythia8_VH.root'
p156
aS'/home/users/fsetti/ic_flashgg/CMSSW_10_2_13/src/flashggFinalFit/files_systs/11May2022//ws_signal_2016/output_ggH_M125_13TeV_pythia8_ggH.root'
p157
aS'/home/users/fsetti/ic_flashgg/CMSSW_10_2_13/src/flashggFinalFit/files_systs/11May2022//ws_signal_2016/output_ttH_M125_13TeV_pythia8_ttH.root'
p158
aS'/home/users/fsetti/ic_flashgg/CMSSW_10_2_13/src/flashggFinalFit/files_systs/11May2022//ws_signal_2017/output_HHggTauTau_M125_13TeV_pythia8_HHggTauTau.root'
p159
aS'/home/users/fsetti/ic_flashgg/CMSSW_10_2_13/src/flashggFinalFit/files_systs/11May2022//ws_signal_2017/output_HHggWWdileptonic_M125_13TeV_pythia8_HHggWWdileptonic.root'
p160
aS'/home/users/fsetti/ic_flashgg/CMSSW_10_2_13/src/flashggFinalFit/files_systs/11May2022//ws_signal_2017/output_HHggWWsemileptonic_M125_13TeV_pythia8_HHggWWsemileptonic.root'
p161
aS'/home/users/fsetti/ic_flashgg/CMSSW_10_2_13/src/flashggFinalFit/files_systs/11May2022//ws_signal_2017/output_VBFH_M125_13TeV_pythia8_VBFH.root'
p162
aS'/home/users/fsetti/ic_flashgg/CMSSW_10_2_13/src/flashggFinalFit/files_systs/11May2022//ws_signal_2017/output_VH_M125_13TeV_pythia8_VH.root'
p163
aS'/home/users/fsetti/ic_flashgg/CMSSW_10_2_13/src/flashggFinalFit/files_systs/11May2022//ws_signal_2017/output_ggH_M125_13TeV_pythia8_ggH.root'
p164
aS'/home/users/fsetti/ic_flashgg/CMSSW_10_2_13/src/flashggFinalFit/files_systs/11May2022//ws_signal_2017/output_ttH_M125_13TeV_pythia8_ttH.root'
p165
aS'/home/users/fsetti/ic_flashgg/CMSSW_10_2_13/src/flashggFinalFit/files_systs/11May2022//ws_signal_2018/output_HHggTauTau_M125_13TeV_pythia8_HHggTauTau.root'
p166
aS'/home/users/fsetti/ic_flashgg/CMSSW_10_2_13/src/flashggFinalFit/files_systs/11May2022//ws_signal_2018/output_HHggWWdileptonic_M125_13TeV_pythia8_HHggWWdileptonic.root'
p167
aS'/home/users/fsetti/ic_flashgg/CMSSW_10_2_13/src/flashggFinalFit/files_systs/11May2022//ws_signal_2018/output_HHggWWsemileptonic_M125_13TeV_pythia8_HHggWWsemileptonic.root'
p168
aS'/home/users/fsetti/ic_flashgg/CMSSW_10_2_13/src/flashggFinalFit/files_systs/11May2022//ws_signal_2018/output_VBFH_M125_13TeV_pythia8_VBFH.root'
p169
aS'/home/users/fsetti/ic_flashgg/CMSSW_10_2_13/src/flashggFinalFit/files_systs/11May2022//ws_signal_2018/output_VH_M125_13TeV_pythia8_VH.root'
p170
aS'/home/users/fsetti/ic_flashgg/CMSSW_10_2_13/src/flashggFinalFit/files_systs/11May2022//ws_signal_2018/output_ggH_M125_13TeV_pythia8_ggH.root'
p171
aS'/home/users/fsetti/ic_flashgg/CMSSW_10_2_13/src/flashggFinalFit/files_systs/11May2022//ws_signal_2018/output_ttH_M125_13TeV_pythia8_ttH.root'
p172
ag150
ag150
aS'HHggTauTau_125_13TeV_SR2'
p173
aS'HHggWWdileptonic_125_13TeV_SR2'
p174
aS'HHggWWsemileptonic_125_13TeV_SR2'
p175
aS'VBFH_125_13TeV_SR2'
p176
aS'VH_125_13TeV_SR2'
p177
aS'ggH_125_13TeV_SR2'
p178
aS'ttH_125_13TeV_SR2'
p179
aS'HHggTauTau_125_13TeV_SR2'
p180
aS'HHggWWdileptonic_125_13TeV_SR2'
p181
aS'HHggWWsemileptonic_125_13TeV_SR2'
p182
aS'VBFH_125_13TeV_SR2'
p183
aS'VH_125_13TeV_SR2'
p184
aS'ggH_125_13TeV_SR2'
p185
aS'ttH_125_13TeV_SR2'
p186
aS'HHggTauTau_125_13TeV_SR2'
p187
aS'HHggWWdileptonic_125_13TeV_SR2'
p188
aS'HHggWWsemileptonic_125_13TeV_SR2'
p189
aS'VBFH_125_13TeV_SR2'
p190
aS'VH_125_13TeV_SR2'
p191
aS'ggH_125_13TeV_SR2'
p192
aS'ttH_125_13TeV_SR2'
p193
ag150
ag150
aS'./Models/signal/CMS-HGG_sigfit_packaged_SR2.root'
p194
aS'./Models/signal/CMS-HGG_sigfit_packaged_SR2.root'
p195
aS'./Models/signal/CMS-HGG_sigfit_packaged_SR2.root'
p196
aS'./Models/signal/CMS-HGG_sigfit_packaged_SR2.root'
p197
aS'./Models/signal/CMS-HGG_sigfit_packaged_SR2.root'
p198
aS'./Models/signal/CMS-HGG_sigfit_packaged_SR2.root'
p199
aS'./Models/signal/CMS-HGG_sigfit_packaged_SR2.root'
p200
aS'./Models/signal/CMS-HGG_sigfit_packaged_SR2.root'
p201
aS'./Models/signal/CMS-HGG_sigfit_packaged_SR2.root'
p202
aS'./Models/signal/CMS-HGG_sigfit_packaged_SR2.root'
p203
aS'./Models/signal/CMS-HGG_sigfit_packaged_SR2.root'
p204
aS'./Models/signal/CMS-HGG_sigfit_packaged_SR2.root'
p205
aS'./Models/signal/CMS-HGG_sigfit_packaged_SR2.root'
p206
aS'./Models/signal/CMS-HGG_sigfit_packaged_SR2.root'
p207
aS'./Models/signal/CMS-HGG_sigfit_packaged_SR2.root'
p208
aS'./Models/signal/CMS-HGG_sigfit_packaged_SR2.root'
p209
aS'./Models/signal/CMS-HGG_sigfit_packaged_SR2.root'
p210
aS'./Models/signal/CMS-HGG_sigfit_packaged_SR2.root'
p211
aS'./Models/signal/CMS-HGG_sigfit_packaged_SR2.root'
p212
aS'./Models/signal/CMS-HGG_sigfit_packaged_SR2.root'
p213
aS'./Models/signal/CMS-HGG_sigfit_packaged_SR2.root'
p214
aS'./Models/background/CMS-HGG_multipdf_SR2.root'
p215
ag215
aS'wsig_13TeV:hggpdfsmrel_HHggTauTau_2016_SR2_13TeV'
p216
aS'wsig_13TeV:hggpdfsmrel_HHggWWdileptonic_2016_SR2_13TeV'
p217
aS'wsig_13TeV:hggpdfsmrel_HHggWWsemileptonic_2016_SR2_13TeV'
p218
aS'wsig_13TeV:hggpdfsmrel_VBFH_2016_SR2_13TeV'
p219
aS'wsig_13TeV:hggpdfsmrel_VH_2016_SR2_13TeV'
p220
aS'wsig_13TeV:hggpdfsmrel_ggH_2016_SR2_13TeV'
p221
aS'wsig_13TeV:hggpdfsmrel_ttH_2016_SR2_13TeV'
p222
aS'wsig_13TeV:hggpdfsmrel_HHggTauTau_2017_SR2_13TeV'
p223
aS'wsig_13TeV:hggpdfsmrel_HHggWWdileptonic_2017_SR2_13TeV'
p224
aS'wsig_13TeV:hggpdfsmrel_HHggWWsemileptonic_2017_SR2_13TeV'
p225
aS'wsig_13TeV:hggpdfsmrel_VBFH_2017_SR2_13TeV'
p226
aS'wsig_13TeV:hggpdfsmrel_VH_2017_SR2_13TeV'
p227
aS'wsig_13TeV:hggpdfsmrel_ggH_2017_SR2_13TeV'
p228
aS'wsig_13TeV:hggpdfsmrel_ttH_2017_SR2_13TeV'
p229
aS'wsig_13TeV:hggpdfsmrel_HHggTauTau_2018_SR2_13TeV'
p230
aS'wsig_13TeV:hggpdfsmrel_HHggWWdileptonic_2018_SR2_13TeV'
p231
aS'wsig_13TeV:hggpdfsmrel_HHggWWsemileptonic_2018_SR2_13TeV'
p232
aS'wsig_13TeV:hggpdfsmrel_VBFH_2018_SR2_13TeV'
p233
aS'wsig_13TeV:hggpdfsmrel_VH_2018_SR2_13TeV'
p234
aS'wsig_13TeV:hggpdfsmrel_ggH_2018_SR2_13TeV'
p235
aS'wsig_13TeV:hggpdfsmrel_ttH_2018_SR2_13TeV'
p236
aS'multipdf:CMS_hgg_SR2_13TeV_bkgshape'
p237
aS'multipdf:roohist_data_mass_SR2'
p238
aI1000
aI1000
aI1000
aI1000
aI1000
aI1000
aI1000
aI1000
aI1000
aI1000
aI1000
aI1000
aI1000
aI1000
aI1000
aI1000
aI1000
aI1000
aI1000
aI1000
aI1000
aF1.0
aI-1
aF0.01703289839408532
aF0.003237592659916346
aF0.00473332734329824
aF0.09625728341275687
aF0.25181147704991486
aF0.1234243714429798
aF0.09834652189799208
aF0.015941928562141938
aF0.0034660018934115936
aF0.0060200592221164966
aF0.09993917252341576
aF0.3075183937188268
aF0.13827141843441537
aF0.11064024543038024
aF0.03004734194332872
aF0.00527527812298089
aF0.008081816924660664
aF0.12160393929511573
aF0.5081613605737112
aF0.29189260949602397
aF0.14821456366975913
ag150
ag150
aF3.273843190916055e-08
aF2.6697827188479053e-09
aF1.8792648402294925e-08
aF0.00014026375924522006
aF0.00032534846421825297
aF0.001145753531772163
aF0.00010710422565295491
aF3.3174697386583386e-08
aF2.7817646029052977e-09
aF2.1745584064130874e-08
aF0.00032269093208204175
aF0.0004693148978366401
aF0.003347578936897437
aF0.00011991978585224984
aF9.753080327848372e-08
aF6.3456480779062454e-09
aF4.689797050752381e-08
aF0.0006969983534834597
aF0.0011068937151994217
aF0.007308468036749153
aF0.0002719990384828353
ag150
ag150
aF0.01703289839408532
aF0.003237592659916346
aF0.00473332734329824
aF0.09625728341275687
aF0.25181147704991486
aF0.1234243714429798
aF0.09834652189799208
aF0.015941928562141938
aF0.0034660018934115936
aF0.0060200592221164966
aF0.09993917252341576
aF0.3075183937188268
aF0.13827141843441537
aF0.11064024543038024
aF0.03004734194332872
aF0.00527527812298089
aF0.008081816924660664
aF0.12160393929511573
aF0.5081613605737112
aF0.29189260949602397
aF0.14821456366975913
ag150
ag150
aF0.017068174970001185
aF0.0032448651572367184
aF0.0047425844392091415
aF0.09645012035039935
aF0.25237837540006886
aF0.12360398771025158
aF0.09854165815965095
aF0.015991356905101187
aF0.0034770114462916646
aF0.006037539957538054
aF0.10021912973734509
aF0.3084418757603793
aF0.13861150609910147
aF0.11091118388205327
aF0.030101322025940153
aF0.005285538596392673
aF0.00809533298991642
aF0.12185480913892689
aF0.5091403121993026
aF0.29233358007281635
aF0.14844509167597242
ag150
ag150
aF0.016997660909858502
aF0.0032303286566756264
aF0.004724079922003796
aF0.09606462118398557
aF0.25124526274326026
aF0.12324491909911744
aF0.09815158401321816
aF0.015892580835580133
aF0.0034550112595527344
aF0.006002603890207525
aF0.09965958095161322
aF0.30659643502455375
aF0.13793174429960758
aF0.11036983918378353
aF0.029993414135577164
aF0.005265028414112025
aF0.008068313248813722
aF0.12135339508078004
aF0.5071834589799734
aF0.29145193031804645
aF0.1479842647913408
ag150
ag150
aF0.017058355542616234
aF0.0032571119203760883
aF0.004737161154687054
aF0.09626324015060322
aF0.25212443067576024
aF0.1234243714429798
aF0.09875263764825745
aF0.015964592236815157
aF0.003486654972359626
aF0.0060261209085936745
aF0.09994197381860613
aF0.30784334039313394
aF0.13827141843441537
aF0.11107196733899363
aF0.030092337206666153
aF0.005310234840490659
aF0.008089944185581231
aF0.12160393929511573
aF0.5086992057130564
aF0.29170427015106953
aF0.14884191033573288
ag150
ag150
aF0.017007478528328582
aF0.0032181488770517703
aF0.004729493685523331
aF0.09625132667491051
aF0.25149945206227853
aF0.1234243714429798
aF0.09794110286541884
aF0.01591930436702087
aF0.0034454339980524514
aF0.006014001733406753
aF0.09993637122822539
aF0.30719413604387047
aF0.13827141843441537
aF0.11020945195823328
aF0.03000240070933962
aF0.005240457779695335
aF0.008073696250289397
aF0.12160393929511573
aF0.5076244350119257
aF0.29207977635764554
aF0.14758879070113806
ag150
ag150
aF0.017033355277340446
aF0.0032379983688364472
aF0.004733418184046198
aF0.09625720853245365
aF0.2518172920245176
aF0.12342211719506688
aF0.09835192588967746
aF0.015942227946756916
aF0.003466320842004699
aF0.006020150157630646
aF0.0999390895051306
aF0.3075224729741517
aF0.13827141843441537
aF0.11064562191429507
aF0.030047769968994987
aF0.005275630699742849
aF0.008081904073525163
aF0.1216036834019186
aF0.5081659741635994
aF0.29189260949602397
aF0.14822188570848957
ag150
ag150
aF0.017032441514429307
aF0.0032371869753261965
aF0.004733236500116649
aF0.09625735816462049
aF0.25180566174566743
aF0.12342662591804388
aF0.09834111843848185
aF0.015941629200208696
aF0.0034656829812583795
aF0.006019968294444867
aF0.09993925539930247
aF0.30751431463258155
aF0.13827141843441537
aF0.11063486923183956
aF0.03004691396825643
aF0.0052749255965002465
aF0.00808172979288787
aF0.12160419530515906
aF0.5081567471281632
aF0.29189260949602397
aF0.1482072421826012
ag150
ag150
aF0.017033613477935142
aF0.003238232754572264
aF0.004733452787566749
aF0.09625721135812547
aF0.25183216052941054
aF0.12342235979248434
aF0.0983516385068418
aF0.015942452476304003
aF0.0034665758238467937
aF0.0060202154388855145
aF0.09993909263789609
aF0.3075240538284261
aF0.13827141843441537
aF0.11065004916544645
aF0.030048255377082063
aF0.005276052537828604
aF0.008082009904708112
aF0.12160360675080567
aF0.50817377546516
aF0.29189260949602397
aF0.14823218515543432
ag150
ag150
aF0.017032183330696636
aF0.0032369526696772893
aF0.004733201896366921
aF0.0962573554673883
aF0.25179083292158144
aF0.12342638309347528
aF0.098341408197195
aF0.01594140468998388
aF0.0034654280647422532
aF0.0060199030192229965
aF0.09993925240893543
aF0.30751273420976527
aF0.13827141843441537
aF0.11063044332352355
aF0.030046428571281078
aF0.005274503829129267
aF0.008081623953555377
aF0.12160427160573337
aF0.5081489464372033
aF0.29189260949602397
aF0.14819694351890894
ag150
ag150
aF0.017034713953361084
aF0.0032390525814208547
aF0.004733642139095291
aF0.09625699570798972
aF0.2518358202793287
aF0.12341335506699413
aF0.09836880826898044
aF0.01594349821194697
aF0.003467516037740467
aF0.006020514477899912
aF0.09993885355093078
aF0.3075305754620206
aF0.13827141843441537
aF0.11066367126808686
aF0.030049530756600763
aF0.005276950145920905
aF0.008082256522877434
aF0.12160185405767468
aF0.5081819078259625
aF0.29189260949602397
aF0.1482484989277722
ag150
ag150
aF0.017031082968774106
aF0.003236133156385115
aF0.004733012552025384
aF0.09625757105330422
aF0.25178713650151935
aF0.12343538781896549
aF0.0983242426968404
aF0.015940359157727835
aF0.0034644882151218842
aF0.00601960399332242
aF0.09993949142470153
aF0.3075062135322121
aF0.13827141843441537
aF0.1106168224690995
aF0.03004515328752408
aF0.005273606451961806
aF0.008081377326272655
aF0.12160602418201816
aF0.5081408154890541
aF0.29189260949602397
aF0.14818062991168376
ag150
ag150
aF0.01704200507489356
aF0.0032445937896260343
aF0.004734760993936943
aF0.09625549874412309
aF0.2519408838960359
aF0.12337736433177462
aF0.09853400676006759
aF0.015949589112206595
aF0.003473275503621978
aF0.006022392622357299
aF0.09993719389721988
aF0.30755684133403743
aF0.13827141843441537
aF0.11073230193975343
aF0.030061934814175597
aF0.00528604808379296
aF0.008084657889786474
aF0.12157816792901005
aF0.508303192467811
aF0.29189260949602397
aF0.14844712159041615
ag150
ag150
aF0.017023794245542002
aF0.0032305997415501687
aF0.00473189382464482
aF0.09625906724653308
aF0.25168206717580927
aF0.12347137832703384
aF0.09815995132188182
aF0.01593427303425164
aF0.0034587366651726028
aF0.006017725842127517
aF0.09994115022402185
aF0.3074799753976477
aF0.13827141843441537
aF0.11054821071808217
aF0.030032758111172547
aF0.005264522278459636
aF0.008078975963473387
aF0.12162965644458057
aF0.5080196270339336
aF0.29189260949602397
aF0.14798184397352532
ag150
ag150
aF0.017070752796298286
aF0.003244899147538973
aF0.004743386161251233
aF0.09646299202756317
aF0.2523391297998577
aF0.12373027598457258
aF0.09854151097859058
aF0.015984579527392122
aF0.003475630535088829
aF0.006035828490309683
aF0.10018983351312395
aF0.3083769499006078
aF0.1386516868706952
aF0.11091002662418922
aF0.030116376667359706
aF0.005287636249862172
aF0.008099632945695249
aF0.12187527813785325
aF0.5092957970685091
aF0.29248376116896707
aF0.1485542167711478
ag150
ag150
aF0.016995085905482436
aF0.003230294405644006
aF0.004723279235942854
aF0.09605179391031893
aF0.25128437684114474
aF0.12311882909870075
aF0.09815172826033976
aF0.015899334166415938
aF0.003456386339858375
aF0.006004310374944995
aF0.09968885341831095
aF0.3066609692466321
aF0.13789163293492426
aF0.11037085006494346
aF0.02997838623196405
aF0.005262934329900497
aF0.008064020627770539
aF0.12133290912445911
aF0.5070281938241874
aF0.2913020602183369
aF0.14787530150737324
ag150
ag150
aF0.01704414614408451
aF0.003234721936373494
aF0.004734026952262595
aF0.09356308130075067
aF0.2517945889533469
aF0.12866147596822966
aF0.1034606026639552
aF0.015932324908712166
aF0.0034790704983294284
aF0.006039492067978068
aF0.09798028484252204
aF0.30430647022204277
aF0.1485865069468083
aF0.10879742824359369
aF0.030071248731948923
aF0.00528800848538421
aF0.008091000623060163
aF0.12197774460700336
aF0.5065786142800848
aF0.27685627772935173
aF0.14746898464570174
ag150
ag150
aF0.01705416401908706
aF0.0032280639511648775
aF0.004740933273614548
aF0.09389134821263984
aF0.25216994658944875
aF0.12599567993844732
aF0.0963583181284771
aF0.01591413805703426
aF0.0034601973231585367
aF0.005989716132625518
aF0.09680375709577405
aF0.31093410577084957
aF0.1306641299121123
aF0.11108617501967363
aF0.030027032947232798
aF0.005279534666488196
aF0.008053674400867199
aF0.12123309108726474
aF0.5035220277043572
aF0.2816495932959946
aF0.14730942028449767
ag150
ag150
aF0.017078177656540988
aF0.0032358342919421527
aF0.004741753247449477
aF0.09556217517384603
aF0.2513326850540723
aF0.11638439681307242
aF0.10160884012913174
aF0.015970141040248995
aF0.0034933088149660643
aF0.006035324230000115
aF0.10021755088983625
aF0.3110685245177384
aF0.12454283604099362
aF0.1102142756204956
aF0.030102244355196244
aF0.005330181140206344
aF0.00801577102951715
aF0.11588938841793299
aF0.5054857398919618
aF0.2712883490289067
aF0.14581370959900375
ag150
ag150
aF0.01703566446206016
aF0.0032204967074242153
aF0.0047686168949657715
aF0.09524714065531406
aF0.2540213537294154
aF0.13376011907871896
aF0.10396741137556761
aF0.015911296354516227
aF0.0034495002107558584
aF0.006020209294152792
aF0.09788802699116404
aF0.30839071683978186
aF0.1470853656651157
aF0.10907819179652158
aF0.02998261868651039
aF0.00526813441786559
aF0.008095091052500954
aF0.12970209800535776
aF0.5015088645386404
aF0.29930311069193594
aF0.15783100457966154
ag150
ag150
aF0.017042414822733866
aF0.003236741926308147
aF0.004709182112435991
aF0.10335353734029736
aF0.2499228420830077
aF0.1303458233265643
aF0.09538463938320767
aF0.01592848305103204
aF0.003481663923663219
aF0.006046210319341742
aF0.10726016750687574
aF0.30353802835553134
aF0.13800613100768774
aF0.11174925535967525
aF0.03018177903294931
aF0.005257940098682585
aF0.008111761665418472
aF0.12191134570884865
aF0.5052783999497672
aF0.28685619448382116
aF0.1483541465391046
ag150
ag150
aF0.01700670209428299
aF0.003245934316499107
aF0.0046917441408958925
aF0.084303147550444
aF0.25391798261205456
aF0.1213907285031911
aF0.09783879157796876
aF0.01590589490310408
aF0.0034664870158261454
aF0.006017119653086508
aF0.08777126910260835
aF0.30574585585796277
aF0.13073684707045785
aF0.10988501616080361
aF0.030084747086713198
aF0.005256527187699268
aF0.008020584916527363
aF0.13145356359891497
aF0.5085400653748307
aF0.23918457504349463
aF0.1508621098446316
ag150
ag150
aF0.017082185253394125
aF0.0032311142864709735
aF0.00472404639125407
aF0.09450916179592761
aF0.25581140117913614
aF0.11472602585167423
aF0.0932446193084143
aF0.015919749648535163
aF0.0034527738187802443
aF0.0060754728301812295
aF0.0982710421658185
aF0.3069865871065584
aF0.14929838663293515
aF0.10960638182441942
aF0.03027841111677857
aF0.005279678570739556
aF0.00807726303572462
aF0.12139149725817418
aF0.5006731704887123
aF0.2893139320613965
aF0.1515619061543436
ag150
ag150
aF0.016971144198371188
aF0.0032344265347217563
aF0.004752478422458288
aF0.10831291692762118
aF0.2556445178515128
aF0.14703101896181014
aF0.09894510356833777
aF0.015901636167194415
aF0.003459661203134306
aF0.0060411269240571875
aF0.11310867551322883
aF0.3074523113262199
aF0.15343987470060122
aF0.1116381584221352
aF0.029996746226021522
aF0.005284164883404917
aF0.008067596473259567
aF0.12207686488759197
aF0.5097754798405054
aF0.2862470990788132
aF0.15112093436019391
ag150
ag150
aF0.017074906341358654
aF0.0032390464192324085
aF0.004744956409231444
aF0.10064545883777877
aF0.2592397154803258
aF0.13553658079176362
aF0.10243839819799588
aF0.015959933810664823
aF0.0034643196795588215
aF0.006078258263555957
aF0.10398765912322729
aF0.3062801320968043
aF0.17031881642010677
aF0.11077980173130418
aF0.03014062030543969
aF0.005268541678190681
aF0.00802959566349696
aF0.12963122854269352
aF0.5269648721315523
aF0.3054809359731141
aF0.14930650806103754
ag150
ag150
aF0.016990321627606185
aF0.0032293770245665748
aF0.0046783219162469
aF0.090622483377868
aF0.24712341673878319
aF0.11747000926917192
aF0.09733560465341731
aF0.01595375278104339
aF0.003452070983988315
aF0.006019646997713365
aF0.09637123846300555
aF0.3040841663954688
aF0.14951740787301165
aF0.1082473149181083
aF0.03015281538701932
aF0.005298004343389447
aF0.007973926842326411
aF0.13236039635334076
aF0.5054389171352519
aF0.3087749143368245
aF0.14737850001928143
ag150
ag150
aF0.017029450401751647
aF0.003238671968347349
aF0.004733327343298237
aF0.09625728341275694
aF0.25181147704991474
aF0.12342437144297982
aF0.09834652189799206
aF0.01594258704606137
aF0.0034665772061779144
aF0.0060200592221165
aF0.0999391725234158
aF0.30751839371882655
aF0.13827141843441534
aF0.11040847991623241
aF0.0300447698128168
aF0.005276871308405246
aF0.008081816924660663
aF0.12160393929511572
aF0.5081613605737114
aF0.2918926094960238
aF0.1479615295885151
ag150
ag150
aF0.017027430961958856
aF0.0032362462145767027
aF0.004733327343298237
aF0.09625728341275694
aF0.25181147704991474
aF0.12342437144297982
aF0.09834652189799206
aF0.01594217691826201
aF0.0034671801758551705
aF0.0060200592221165
aF0.0999391725234158
aF0.3069041478305383
aF0.13827141843441534
aF0.11033433659508093
aF0.0300447698128168
aF0.005274294583654786
aF0.008081816924660663
aF0.12160393929511572
aF0.509238834602334
aF0.2918926094960238
aF0.1482145636697592
ag150
ag150
aF0.017140988053422342
aF0.0032447447538790242
aF0.004755892665564345
aF0.09625728341275694
aF0.2507011509381138
aF0.12342437144297982
aF0.09752184403459209
aF0.015992930885334482
aF0.0034683989037735557
aF0.006039246359386788
aF0.0999391725234158
aF0.30892848532045886
aF0.13827141843441534
aF0.10968541960841069
aF0.030116567612265017
aF0.005284345729006413
aF0.008082247599610829
aF0.12160393929511572
aF0.5098827346618787
aF0.2918926094960238
aF0.1424567673288445
ag150
ag150
aF0.016984875083104624
aF0.0032271505281287146
aF0.0047254534235186985
aF0.09625728341275694
aF0.25027691259110485
aF0.12342437144297982
aF0.0971525457579829
aF0.015889877772248772
aF0.003455328511445324
aF0.006006448187991489
aF0.0999391725234158
aF0.3058943468938023
aF0.13827141843441534
aF0.10949921731189137
aF0.02995093105748354
aF0.005263680677215331
aF0.00806319813042025
aF0.12160393929511572
aF0.5074881664796572
aF0.2918926094960238
aF0.14774691935604156
ag150
ag150
aF0.017014822175297883
aF0.0032325970375162824
aF0.004735171661465321
aF0.09615483840028195
aF0.2520705806446776
aF0.122526032304655
aF0.09803846584208645
aF0.015928103999692925
aF0.003463327977103023
aF0.006020084796337834
aF0.09938114307052301
aF0.3073955815106578
aF0.13714035698607263
aF0.11002075579024864
aF0.030011611490636792
aF0.005274499890167565
aF0.008077356330286
aF0.12250489193186972
aF0.5061069052654751
aF0.28948818973772483
aF0.1481308381805793
ag150
ag150
aF0.017048882409109116
aF0.003241938175053112
aF0.004736980765699286
aF0.09634854500963828
aF0.251383747819077
aF0.12376684924846665
aF0.09819696348174943
aF0.015961173061630557
aF0.003469058816340284
aF0.006020195381063975
aF0.10011753459887049
aF0.3073973424198851
aF0.1382461375862488
aF0.11101871882786268
aF0.03009418569178719
aF0.00527698231156794
aF0.008085274578081636
aF0.1214674691255606
aF0.5101173556684935
aF0.2935780661458035
aF0.14832905554548675
ag150
ag150
aF0.01700618719588404
aF0.0032171385362213234
aF0.004740116058036754
aF0.09666747995451323
aF0.2564875309044313
aF0.12330910414274875
aF0.10083129971033866
aF0.015939508068435772
aF0.0034658672943039654
aF0.006018738259782015
aF0.09989314972240157
aF0.3074705141038864
aF0.13799659274715248
aF0.11057516296548414
aF0.030047378315152556
aF0.0052753001302719696
aF0.008078110805808543
aF0.121479517596418
aF0.5079828160448182
aF0.2923410068451831
aF0.14835665581447752
ag150
ag150
aF0.017058740069054036
aF0.0032591180833202314
aF0.004726138102423771
aF0.09583680098817339
aF0.24696297382879204
aF0.12337089591943279
aF0.09581577460463413
aF0.01594422838874642
aF0.0034658059744711333
aF0.006021609763447712
aF0.10005530387806123
aF0.3075682171155389
aF0.13854804381986413
aF0.11067858290307658
aF0.030046572330601404
aF0.005275311977220682
aF0.008085618757328546
aF0.1217470613795416
aF0.5083047266056743
aF0.29123762730779834
aF0.14805098975343337
ag150
ag150
aF0.016999456549657958
aF0.003218140162080822
aF0.004739149382053782
aF0.09653612101883796
aF0.2559747459591585
aF0.12309757823007537
aF0.1008282776197642
aF0.015930580159055456
aF0.003463987768849631
aF0.0060188561360301875
aF0.09982139222750375
aF0.3076339726128739
aF0.13790594176382676
aF0.11075498561634635
aF0.030036015016980253
aF0.005273730537015902
aF0.008078000349385423
aF0.12141791832716284
aF0.5077228695446796
aF0.29194041829531914
aF0.14828344690198908
ag150
ag150
aF0.017067256053981933
aF0.003258153091397925
aF0.00472706787199168
aF0.09598047421502501
aF0.24750387301867618
aF0.12374232002266297
aF0.09577472463015485
aF0.015953130879881147
aF0.0034678543921409714
aF0.006020921350043997
aF0.10007447812385853
aF0.30738796853218037
aF0.13862186499307447
aF0.1104777969403858
aF0.0300595992017695
aF0.005276882741639394
aF0.008085805735658692
aF0.12181189696205634
aF0.5086075316631082
aF0.2917669133234641
aF0.14812158185919655
ag150
ag150
aF0.0170348865145551
aF0.0032384062348868765
aF0.0047331283113860746
aF0.09612863541586124
aF0.25199541849824236
aF0.1228727997055559
aF0.09899468929639384
aF0.01594317729710081
aF0.0034657169116569532
aF0.006018873131197571
aF0.0998976499759582
aF0.3074140697752128
aF0.138261710822125
aF0.11190526483033829
aF0.03004892000264704
aF0.0052747062956567375
aF0.008082973970913282
aF0.12158973732806656
aF0.5084656895265947
aF0.29188090076252227
aF0.1499589377310573
ag150
ag150
aF0.017031009508832864
aF0.0032367574315252294
aF0.004733563588849543
aF0.09638460049215072
aF0.25163898794782313
aF0.12395989993987469
aF0.09780574605975371
aF0.01594068824231734
aF0.0034662830642491487
aF0.006021284831503592
aF0.09998209073632461
aF0.30762403985991743
aF0.138281105274225
aF0.10938126738283008
aF0.030045758687967408
aF0.005275848715172147
aF0.00808065134569783
aF0.12161827108757958
aF0.5078590307076508
aF0.2919044423806009
aF0.14648300412675982
ag150
ag150
aF0.017032181814070537
aF0.0032368858458569263
aF0.004733051506431675
aF0.09629035192754401
aF0.25194634965319557
aF0.12362261703338698
aF0.09860475509532544
aF0.015941418556760564
aF0.003466057594362789
aF0.006019360494802694
aF0.09994906879331023
aF0.30747777655404257
aF0.13826943207485334
aF0.11055467899828703
aF0.030047014800610457
aF0.005274969539998433
aF0.008081816654476045
aF0.12163977942360171
aF0.5081979809771227
aF0.29188925137759586
aF0.14835416822783787
ag150
ag150
aF0.017033598911882518
aF0.0032382665341342417
aF0.004733649221499999
aF0.09622614620783358
aF0.2516723937732146
aF0.12323403277814332
aF0.0981383987016857
aF0.015942447475365825
aF0.0034659456462492223
aF0.006020794158009694
aF0.09992887800978985
aF0.3075626850451719
aF0.13827341756127662
aF0.11072336715961405
aF0.030047660053901967
aF0.00527559901578582
aF0.008081833910598857
aF0.12156777252849259
aF0.5081227953368369
aF0.29189641037753067
aF0.1480572568462635
ag150
ag150
aF0.01707883021416023
aF0.0032514804063664606
aF0.004729096608697459
aF0.09457264432770311
aF0.24517417212350032
aF0.12305069679736687
aF0.0936273381968765
aF0.01593989315172747
aF0.0034615647737941684
aF0.006032398285549186
aF0.10010041930453831
aF0.3073153465066953
aF0.13784502578018562
aF0.11102788181292206
aF0.0300234351550384
aF0.005266167216693901
aF0.008110582053141316
aF0.12290503491744001
aF0.5095884336529342
aF0.29349293840659085
aF0.1467234343500491
ag150
ag150
aF0.016992021700724523
aF0.003226182800895928
aF0.004738350357483585
aF0.09809519907140285
aF0.2582689856522592
aF0.12362046468071848
aF0.1028340216223259
aF0.015947611690600525
aF0.0034743372960368306
aF0.005997182825888268
aF0.09938536663138699
aF0.3078496727866165
aF0.13912350243472185
aF0.11046403475897332
aF0.03010354538559532
aF0.005296622013057111
aF0.008028316427937502
aF0.11888133145045615
aF0.5042363693785579
aF0.28895075229856687
aF0.15116048487693692
ag150
ag150
aF0.017066898995380282
aF0.0032479644443598877
aF0.004727314124103374
aF0.09496458359964811
aF0.24624364297908255
aF0.12351800167560473
aF0.09457749749268175
aF0.015941589880997784
aF0.0034625823615998023
aF0.006028938889226895
aF0.10003193703540143
aF0.3074207103271413
aF0.1377790036941814
aF0.1109402365487694
aF0.0300271333136908
aF0.0052671574002428395
aF0.008105598644141968
aF0.12274070944112883
aF0.5093369198223856
aF0.2931031703155798
aF0.14670559552081458
ag150
ag150
aF0.017004268842877857
aF0.0032297014372526856
aF0.00474099847493184
aF0.09750627536991019
aF0.25694368896829406
aF0.12314488371989674
aF0.10170231465001489
aF0.015942865122184173
aF0.0034709148225084974
aF0.0060078737469640865
aF0.0997006969509808
aF0.3076752909852
aF0.13903461711749104
aF0.11041483260989814
aF0.030082260371998404
aF0.005289290913189641
aF0.008046173903390413
aF0.11979117604761232
aF0.505871558353283
aF0.2901261305664502
aF0.15048519030626473
ag150
ag150
atp239
ba(lp240
g15
(g16
(dp241
g18
g19
(g20
(I0
tp242
g22
tp243
Rp244
(I1
(I56
tp245
g29
I00
(lp246
g33
ag34
ag35
ag36
ag37
ag38
ag39
ag40
ag41
ag42
ag43
ag44
ag45
ag46
ag47
ag48
ag49
ag50
ag51
ag52
ag53
ag54
ag55
ag56
ag57
ag58
ag59
ag60
ag61
ag62
ag63
ag64
ag65
ag66
ag67
ag68
ag69
ag70
ag71
ag72
ag73
ag74
ag75
ag76
ag77
ag78
ag79
ag80
ag81
ag82
ag83
ag84
ag85
ag86
ag87
ag88
atp247
bsg90
Nstp248
Rp249
a(dp250
S'0.14.1'
p251
(dp252
S'axes'
p253
g14
sS'blocks'
p254
(lp255
(dp256
S'mgr_locs'
p257
c__builtin__
slice
p258
(I0
I56
I1
tp259
Rp260
sS'values'
p261
g111
sasstp262
bsb.