ccopy_reg
_reconstructor
p0
(cpandas.core.frame
DataFrame
p1
c__builtin__
object
p2
Ntp3
Rp4
(dp5
S'_metadata'
p6
(lp7
sS'_typ'
p8
S'dataframe'
p9
sS'_data'
p10
g0
(cpandas.core.internals
BlockManager
p11
g2
Ntp12
Rp13
((lp14
cpandas.core.indexes.base
_new_Index
p15
(cpandas.core.indexes.base
Index
p16
(dp17
S'data'
p18
cnumpy.core.multiarray
_reconstruct
p19
(cnumpy
ndarray
p20
(I0
tp21
S'b'
p22
tp23
Rp24
(I1
(I42
tp25
cnumpy
dtype
p26
(S'O8'
p27
I0
I1
tp28
Rp29
(I3
S'|'
p30
NNNI-1
I-1
I63
tp31
bI00
(lp32
S'year'
p33
aS'type'
p34
aS'procOriginal'
p35
aS'proc'
p36
aS'proc_s0'
p37
aS'cat'
p38
aS'inputWSFile'
p39
aS'nominalDataName'
p40
aS'modelWSFile'
p41
aS'model'
p42
aS'rate'
p43
aS'nominal_yield'
p44
aS'sumw2'
p45
aS'nominal_yield_COWCorr'
p46
aS'weight_trigger_sf_up_yield'
p47
aS'weight_trigger_sf_down_yield'
p48
aS'weight_puWeight_up_yield'
p49
aS'weight_puWeight_down_yield'
p50
aS'JER_up_yield'
p51
aS'JER_down_yield'
p52
aS'JES_up_yield'
p53
aS'JES_down_yield'
p54
aS'MET_JER_up_yield'
p55
aS'MET_JER_down_yield'
p56
aS'MET_JES_up_yield'
p57
aS'MET_JES_down_yield'
p58
aS'MET_Unclustered_up_yield'
p59
aS'MET_Unclustered_down_yield'
p60
aS'weight_btag_deepjet_sf_SelectedJet_jes_up_yield'
p61
aS'weight_btag_deepjet_sf_SelectedJet_jes_down_yield'
p62
aS'weight_btag_deepjet_sf_SelectedJet_lfstats1_up_yield'
p63
aS'weight_btag_deepjet_sf_SelectedJet_lfstats1_down_yield'
p64
aS'weight_btag_deepjet_sf_SelectedJet_lfstats2_up_yield'
p65
aS'weight_btag_deepjet_sf_SelectedJet_lfstats2_down_yield'
p66
aS'weight_btag_deepjet_sf_SelectedJet_hfstats1_up_yield'
p67
aS'weight_btag_deepjet_sf_SelectedJet_hfstats1_down_yield'
p68
aS'weight_btag_deepjet_sf_SelectedJet_hfstats2_up_yield'
p69
aS'weight_btag_deepjet_sf_SelectedJet_hfstats2_down_yield'
p70
aS'weight_btag_deepjet_sf_SelectedJet_cferr1_up_yield'
p71
aS'weight_btag_deepjet_sf_SelectedJet_cferr1_down_yield'
p72
aS'weight_btag_deepjet_sf_SelectedJet_cferr2_up_yield'
p73
aS'weight_btag_deepjet_sf_SelectedJet_cferr2_down_yield'
p74
atp75
bsS'name'
p76
Nstp77
Rp78
ag15
(cpandas.core.indexes.numeric
Int64Index
p79
(dp80
g18
g19
(g20
(I0
tp81
g22
tp82
Rp83
(I1
(I5
tp84
g26
(S'i8'
p85
I0
I1
tp86
Rp87
(I3
S'<'
p88
NNNI-1
I-1
I0
tp89
bI00
S'\x00\x00\x00\x00\x00\x00\x00\x00\x01\x00\x00\x00\x00\x00\x00\x00\x02\x00\x00\x00\x00\x00\x00\x00\x03\x00\x00\x00\x00\x00\x00\x00\x04\x00\x00\x00\x00\x00\x00\x00'
p90
tp91
bsg76
Nstp92
Rp93
a(lp94
g19
(g20
(I0
tp95
g22
tp96
Rp97
(I1
(I42
I5
tp98
g29
I00
(lp99
S'2016'
p100
aS'2017'
p101
aS'2018'
p102
aS'merged'
p103
ag103
aS'sig'
p104
ag104
ag104
aS'bkg'
p105
ag18
aS'NMSSMYggHbbMX600MY90'
p106
ag106
ag106
aS'bkg_mass'
p107
aS'data_obs'
p108
aS'NMSSMYggHbbMX600MY90_2016_hgg'
p109
aS'NMSSMYggHbbMX600MY90_2017_hgg'
p110
aS'NMSSMYggHbbMX600MY90_2018_hgg'
p111
ag107
ag108
ag106
ag106
ag106
aS'-'
p112
ag112
aS'SR1'
p113
ag113
ag113
ag113
ag113
aS'/home/users/fsetti/flashggFinalFit_resonant/CMSSW_10_2_13/src/flashggFinalFit/files/21Sep2022_MY90//ws_signal_2016/output_NMSSMYggHbbMX600MY90_M90_13TeV_pythia8_NMSSMYggHbbMX600MY90.root'
p114
aS'/home/users/fsetti/flashggFinalFit_resonant/CMSSW_10_2_13/src/flashggFinalFit/files/21Sep2022_MY90//ws_signal_2017/output_NMSSMYggHbbMX600MY90_M90_13TeV_pythia8_NMSSMYggHbbMX600MY90.root'
p115
aS'/home/users/fsetti/flashggFinalFit_resonant/CMSSW_10_2_13/src/flashggFinalFit/files/21Sep2022_MY90//ws_signal_2018/output_NMSSMYggHbbMX600MY90_M90_13TeV_pythia8_NMSSMYggHbbMX600MY90.root'
p116
ag112
ag112
aS'NMSSMYggHbbMX600MY90_90_13TeV_SR1'
p117
aS'NMSSMYggHbbMX600MY90_90_13TeV_SR1'
p118
aS'NMSSMYggHbbMX600MY90_90_13TeV_SR1'
p119
ag112
ag112
aS'./Models/signal/CMS-HGG_sigfit_packaged_SR1.root'
p120
aS'./Models/signal/CMS-HGG_sigfit_packaged_SR1.root'
p121
aS'./Models/signal/CMS-HGG_sigfit_packaged_SR1.root'
p122
aS'./Models/background/CMS-HGG_multipdf_SR1.root'
p123
ag123
aS'wsig_13TeV:hggpdfsmrel_NMSSMYggHbbMX600MY90_2016_SR1_13TeV'
p124
aS'wsig_13TeV:hggpdfsmrel_NMSSMYggHbbMX600MY90_2017_SR1_13TeV'
p125
aS'wsig_13TeV:hggpdfsmrel_NMSSMYggHbbMX600MY90_2018_SR1_13TeV'
p126
aS'multipdf:CMS_hgg_SR1_13TeV_bkgshape'
p127
aS'multipdf:roohist_data_mass_SR1'
p128
aI1000
aI1000
aI1000
aF1.0
aI-1
aF3.669897413113972
aF5.7457378469310925
aF11.208512401937867
ag112
ag112
aF0.0015439056811955049
aF0.0022594648103126977
aF0.006805249199359663
ag112
ag112
aF3.669897413113972
aF5.7457378469310925
aF11.208512401937867
ag112
ag112
aF3.692640798512011
aF5.825289691317513
aF11.238840744139
ag112
ag112
aF3.6471745180683146
aF5.666340522566555
aF11.178223478977616
ag112
ag112
aF3.6281267874593217
aF5.688564944926032
aF11.14297531011382
ag112
ag112
aF3.7054830262020535
aF5.799142401414867
aF11.256701657553325
ag112
ag112
aF3.6657245144802513
aF5.716770901800222
aF11.192727425480253
ag112
ag112
aF3.671782025176597
aF5.785397602734174
aF11.233005694138038
ag112
ag112
aF3.6834568324840102
aF5.823317870852279
aF11.268794143486664
ag112
ag112
aF3.619357719642071
aF5.677247286582519
aF11.15129968044068
ag112
ag112
aF3.669168461950857
aF5.745465093692191
aF11.206880827441232
ag112
ag112
aF3.669168461950857
aF5.745465093692191
aF11.206880827441232
ag112
ag112
aF3.669168461950857
aF5.745465093692191
aF11.206880827441232
ag112
ag112
aF3.669168461950857
aF5.745465093692191
aF11.206880827441232
ag112
ag112
aF3.669168461950857
aF5.745465093692191
aF11.206880827441232
ag112
ag112
aF3.669168461950857
aF5.745465093692191
aF11.206880827441232
ag112
ag112
aF3.628381455985402
aF5.7511323876535165
aF11.19503697877816
ag112
ag112
aF3.7174669065353854
aF5.753605975270049
aF11.259619691242321
ag112
ag112
aF3.4938867314195323
aF5.746435459997849
aF11.21453028047573
ag112
ag112
aF3.8636777394133577
aF5.744136225963069
aF11.20285670319678
ag112
ag112
aF3.510692079143381
aF5.74449737573273
aF11.212202225334808
ag112
ag112
aF3.8442779918002237
aF5.746456861195288
aF11.205344621691559
ag112
ag112
aF3.8290329185039735
aF5.693124513662117
aF11.108829118062395
ag112
ag112
aF3.508987864142634
aF5.797868451270896
aF11.307881617838177
ag112
ag112
aF3.5742424332470346
aF5.734689914823835
aF11.197931413534322
ag112
ag112
aF3.760656683745597
aF5.757102821932943
aF11.219350006847009
ag112
ag112
aF3.7497784041495
aF5.748928217249893
aF11.215652191868896
ag112
ag112
aF3.5984858270111015
aF5.739244828005296
aF11.196298132314334
ag112
ag112
aF3.732176490068612
aF5.748473353330885
aF11.21456813801627
ag112
ag112
aF3.616309529490721
aF5.741448910515091
aF11.19981187307818
ag112
ag112
atp129
ba(lp130
g15
(g16
(dp131
g18
g19
(g20
(I0
tp132
g22
tp133
Rp134
(I1
(I42
tp135
g29
I00
(lp136
g33
ag34
ag35
ag36
ag37
ag38
ag39
ag40
ag41
ag42
ag43
ag44
ag45
ag46
ag47
ag48
ag49
ag50
ag51
ag52
ag53
ag54
ag55
ag56
ag57
ag58
ag59
ag60
ag61
ag62
ag63
ag64
ag65
ag66
ag67
ag68
ag69
ag70
ag71
ag72
ag73
ag74
atp137
bsg76
Nstp138
Rp139
a(dp140
S'0.14.1'
p141
(dp142
S'axes'
p143
g14
sS'blocks'
p144
(lp145
(dp146
S'mgr_locs'
p147
c__builtin__
slice
p148
(I0
I42
I1
tp149
Rp150
sS'values'
p151
g97
sasstp152
bsb.